---
triple:          'arm64-apple-darwin'
binary-path:     '/Users/mac/Desktop/BarisCanCoskun/Udemy/Cpp_DSA_Leetcode/10Section27-MergeSort/0-Merge/main'
relocations:
  - { offsetInCU: 0x5C, offset: 0x5C, size: 0x8, addend: 0x0, symName: __ZNSt3__1L19piecewise_constructE, symObjAddr: 0x53B4, symBinAddr: 0x100007BE4, symSize: 0x0 }
  - { offsetInCU: 0x4BA3, offset: 0x4BA3, size: 0x8, addend: 0x0, symName: __ZNSt3__17advanceB7v160006INS_21__tree_const_iteratorIiPNS_11__tree_nodeIiPvEElEEllvEEvRT_T0_, symObjAddr: 0x1DD4, symBinAddr: 0x100004388, symSize: 0x50 }
  - { offsetInCU: 0x4C34, offset: 0x4C34, size: 0x8, addend: 0x0, symName: __ZNSt3__124__put_character_sequenceB7v160006IcNS_11char_traitsIcEEEERNS_13basic_ostreamIT_T0_EES7_PKS4_m, symObjAddr: 0x2DB4, symBinAddr: 0x100005368, symSize: 0x1EC }
  - { offsetInCU: 0x9451, offset: 0x9451, size: 0x8, addend: 0x0, symName: __ZNSt3__1neB7v160006ERKNS_21__tree_const_iteratorIiPNS_11__tree_nodeIiPvEElEES7_, symObjAddr: 0x500, symBinAddr: 0x100002AB4, symSize: 0x34 }
  - { offsetInCU: 0x948E, offset: 0x948E, size: 0x8, addend: 0x0, symName: __ZNSt3__1lsB7v160006INS_11char_traitsIcEEEERNS_13basic_ostreamIcT_EES6_PKc, symObjAddr: 0x90C, symBinAddr: 0x100002EC0, symSize: 0x48 }
  - { offsetInCU: 0x94D4, offset: 0x94D4, size: 0x8, addend: 0x0, symName: __ZNSt3__14endlB7v160006IcNS_11char_traitsIcEEEERNS_13basic_ostreamIT_T0_EES7_, symObjAddr: 0x980, symBinAddr: 0x100002F34, symSize: 0x58 }
  - { offsetInCU: 0x9547, offset: 0x9547, size: 0x8, addend: 0x0, symName: __ZNSt3__1eqB7v160006ERKNS_21__tree_const_iteratorIiPNS_11__tree_nodeIiPvEElEES7_, symObjAddr: 0x1868, symBinAddr: 0x100003E1C, symSize: 0x30 }
  - { offsetInCU: 0x9584, offset: 0x9584, size: 0x8, addend: 0x0, symName: __ZNSt3__14nextB7v160006INS_21__tree_const_iteratorIiPNS_11__tree_nodeIiPvEElEEEENS_9enable_ifIXsr25__is_cpp17_input_iteratorIT_EE5valueES8_E4typeES8_NS_15iterator_traitsIS8_E15difference_typeE, symObjAddr: 0x1B4C, symBinAddr: 0x100004100, symSize: 0x50 }
  - { offsetInCU: 0x95C7, offset: 0x95C7, size: 0x8, addend: 0x0, symName: __ZNSt3__116__tree_prev_iterB7v160006IPNS_16__tree_node_baseIPvEEPNS_15__tree_end_nodeIS4_EEEET_T0_, symObjAddr: 0x1C60, symBinAddr: 0x100004214, symSize: 0xA4 }
  - { offsetInCU: 0x9613, offset: 0x9613, size: 0x8, addend: 0x0, symName: __ZNSt3__110__tree_maxB7v160006IPNS_16__tree_node_baseIPvEEEET_S5_, symObjAddr: 0x1D04, symBinAddr: 0x1000042B8, symSize: 0x40 }
  - { offsetInCU: 0x9648, offset: 0x9648, size: 0x8, addend: 0x0, symName: __ZNSt3__120__tree_is_left_childB7v160006IPNS_16__tree_node_baseIPvEEEEbT_, symObjAddr: 0x1D44, symBinAddr: 0x1000042F8, symSize: 0x2C }
  - { offsetInCU: 0x967D, offset: 0x967D, size: 0x8, addend: 0x0, symName: __ZNSt3__121__convert_to_integralB7v160006El, symObjAddr: 0x1E24, symBinAddr: 0x1000043D8, symSize: 0x14 }
  - { offsetInCU: 0x96A9, offset: 0x96A9, size: 0x8, addend: 0x0, symName: __ZNSt3__19__advanceB7v160006INS_21__tree_const_iteratorIiPNS_11__tree_nodeIiPvEElEEEEvRT_NS_15iterator_traitsIS7_E15difference_typeENS_26bidirectional_iterator_tagE, symObjAddr: 0x1E38, symBinAddr: 0x1000043EC, symSize: 0xA4 }
  - { offsetInCU: 0x9710, offset: 0x9710, size: 0x8, addend: 0x0, symName: __ZNSt3__117__libcpp_allocateB7v160006Emm, symObjAddr: 0x2130, symBinAddr: 0x1000046E4, symSize: 0x60 }
  - { offsetInCU: 0x976A, offset: 0x976A, size: 0x8, addend: 0x0, symName: __ZNSt3__124__is_overaligned_for_newB7v160006Em, symObjAddr: 0x21A4, symBinAddr: 0x100004758, symSize: 0x20 }
  - { offsetInCU: 0x9798, offset: 0x9798, size: 0x8, addend: 0x0, symName: __ZNSt3__121__libcpp_operator_newB7v160006IJmSt11align_val_tEEEPvDpT_, symObjAddr: 0x21C4, symBinAddr: 0x100004778, symSize: 0x2C }
  - { offsetInCU: 0x97E5, offset: 0x97E5, size: 0x8, addend: 0x0, symName: __ZNSt3__121__libcpp_operator_newB7v160006IJmEEEPvDpT_, symObjAddr: 0x21F0, symBinAddr: 0x1000047A4, symSize: 0x24 }
  - { offsetInCU: 0x981E, offset: 0x981E, size: 0x8, addend: 0x0, symName: __ZNSt3__127__tree_balance_after_insertB7v160006IPNS_16__tree_node_baseIPvEEEEvT_S5_, symObjAddr: 0x23FC, symBinAddr: 0x1000049B0, symSize: 0x27C }
  - { offsetInCU: 0x989A, offset: 0x989A, size: 0x8, addend: 0x0, symName: __ZNSt3__118__tree_left_rotateB7v160006IPNS_16__tree_node_baseIPvEEEEvT_, symObjAddr: 0x26A0, symBinAddr: 0x100004C54, symSize: 0xD8 }
  - { offsetInCU: 0x98DC, offset: 0x98DC, size: 0x8, addend: 0x0, symName: __ZNSt3__119__tree_right_rotateB7v160006IPNS_16__tree_node_baseIPvEEEEvT_, symObjAddr: 0x2778, symBinAddr: 0x100004D2C, symSize: 0xCC }
  - { offsetInCU: 0x991E, offset: 0x991E, size: 0x8, addend: 0x0, symName: __ZNSt3__119__libcpp_deallocateB7v160006EPvmm, symObjAddr: 0x2A94, symBinAddr: 0x100005048, symSize: 0x60 }
  - { offsetInCU: 0x9983, offset: 0x9983, size: 0x8, addend: 0x0, symName: __ZNSt3__127__do_deallocate_handle_sizeB7v160006IJSt11align_val_tEEEvPvmDpT_, symObjAddr: 0x2AF4, symBinAddr: 0x1000050A8, symSize: 0x30 }
  - { offsetInCU: 0x99D6, offset: 0x99D6, size: 0x8, addend: 0x0, symName: __ZNSt3__127__do_deallocate_handle_sizeB7v160006IJEEEvPvmDpT_, symObjAddr: 0x2B24, symBinAddr: 0x1000050D8, symSize: 0x28 }
  - { offsetInCU: 0x9A14, offset: 0x9A14, size: 0x8, addend: 0x0, symName: __ZNSt3__124__libcpp_operator_deleteB7v160006IJPvSt11align_val_tEEEvDpT_, symObjAddr: 0x2B4C, symBinAddr: 0x100005100, symSize: 0x2C }
  - { offsetInCU: 0x9A5D, offset: 0x9A5D, size: 0x8, addend: 0x0, symName: __ZNSt3__124__libcpp_operator_deleteB7v160006IJPvEEEvDpT_, symObjAddr: 0x2B78, symBinAddr: 0x10000512C, symSize: 0x24 }
  - { offsetInCU: 0x9A92, offset: 0x9A92, size: 0x8, addend: 0x0, symName: __ZNSt3__116__tree_next_iterB7v160006IPNS_15__tree_end_nodeIPNS_16__tree_node_baseIPvEEEES5_EET_T0_, symObjAddr: 0x2CF4, symBinAddr: 0x1000052A8, symSize: 0x80 }
  - { offsetInCU: 0x9AD0, offset: 0x9AD0, size: 0x8, addend: 0x0, symName: __ZNSt3__110__tree_minB7v160006IPNS_16__tree_node_baseIPvEEEET_S5_, symObjAddr: 0x2D74, symBinAddr: 0x100005328, symSize: 0x40 }
  - { offsetInCU: 0x9B05, offset: 0x9B05, size: 0x8, addend: 0x0, symName: __ZNSt3__116__pad_and_outputB7v160006IcNS_11char_traitsIcEEEENS_19ostreambuf_iteratorIT_T0_EES6_PKS4_S8_S8_RNS_8ios_baseES4_, symObjAddr: 0x2FF0, symBinAddr: 0x1000055A4, symSize: 0x240 }
  - { offsetInCU: 0x9BD4, offset: 0x9BD4, size: 0x8, addend: 0x0, symName: __ZNSt3__119__debug_db_insert_cB7v160006INS_12basic_stringIcNS_11char_traitsIcEENS_9allocatorIcEEEEEEvPT_, symObjAddr: 0x34A4, symBinAddr: 0x100005A58, symSize: 0x10 }
  - { offsetInCU: 0x9C05, offset: 0x9C05, size: 0x8, addend: 0x0, symName: __ZNSt3__112__to_addressB7v160006IcEEPT_S2_, symObjAddr: 0x3570, symBinAddr: 0x100005B24, symSize: 0x14 }
  - { offsetInCU: 0x9C6D, offset: 0x9C6D, size: 0x8, addend: 0x0, symName: __ZNSt3__19use_facetB7v160006INS_5ctypeIcEEEERKT_RKNS_6localeE, symObjAddr: 0x3828, symBinAddr: 0x100005DDC, symSize: 0x2C }
  - { offsetInCU: 0xA13C, offset: 0xA13C, size: 0x8, addend: 0x0, symName: __ZNSt3__118__constexpr_strlenB7v160006EPKc, symObjAddr: 0x38C0, symBinAddr: 0x100005E74, symSize: 0x24 }
  - { offsetInCU: 0xA168, offset: 0xA168, size: 0x8, addend: 0x0, symName: __ZNSt3__1neB7v160006ERKNS_14__map_iteratorINS_15__tree_iteratorINS_12__value_typeIiiEEPNS_11__tree_nodeIS3_PvEElEEEESB_, symObjAddr: 0x3A00, symBinAddr: 0x100005FB4, symSize: 0x30 }
  - { offsetInCU: 0xA1DC, offset: 0xA1DC, size: 0x8, addend: 0x0, symName: __ZNSt3__116forward_as_tupleB7v160006IJRKiEEENS_5tupleIJDpOT_EEES6_, symObjAddr: 0x3EA8, symBinAddr: 0x10000645C, symSize: 0x2C }
  - { offsetInCU: 0xA215, offset: 0xA215, size: 0x8, addend: 0x0, symName: __ZNSt3__116forward_as_tupleB7v160006IJEEENS_5tupleIJDpOT_EEES4_, symObjAddr: 0x3ED4, symBinAddr: 0x100006488, symSize: 0x4 }
  - { offsetInCU: 0xA239, offset: 0xA239, size: 0x8, addend: 0x0, symName: __ZNSt3__17launderB7v160006IKNS_4pairIKiiEEEEPT_S6_, symObjAddr: 0x4558, symBinAddr: 0x100006B0C, symSize: 0x24 }
  - { offsetInCU: 0xA270, offset: 0xA270, size: 0x8, addend: 0x0, symName: __ZNSt3__19__launderB7v160006IKNS_4pairIKiiEEEEPT_S6_, symObjAddr: 0x457C, symBinAddr: 0x100006B30, symSize: 0x14 }
  - { offsetInCU: 0xA2D0, offset: 0xA2D0, size: 0x8, addend: 0x0, symName: __ZNSt3__13getB7v160006ILm0EJRKiEEERNS_13tuple_elementIXT_ENS_5tupleIJDpT0_EEEE4typeERS7_, symObjAddr: 0x4A44, symBinAddr: 0x100006FF8, symSize: 0x24 }
  - { offsetInCU: 0xA36A, offset: 0xA36A, size: 0x8, addend: 0x0, symName: __ZNSt3__17launderB7v160006INS_4pairIKiiEEEEPT_S5_, symObjAddr: 0x4EB8, symBinAddr: 0x10000746C, symSize: 0x24 }
  - { offsetInCU: 0xA3A1, offset: 0xA3A1, size: 0x8, addend: 0x0, symName: __ZNSt3__19__launderB7v160006INS_4pairIKiiEEEEPT_S5_, symObjAddr: 0x4EDC, symBinAddr: 0x100007490, symSize: 0x14 }
  - { offsetInCU: 0xA3D8, offset: 0xA3D8, size: 0x8, addend: 0x0, symName: __ZNSt3__1neB7v160006ERKNS_15__tree_iteratorINS_12__value_typeIiiEEPNS_11__tree_nodeIS2_PvEElEES9_, symObjAddr: 0x5000, symBinAddr: 0x1000075B4, symSize: 0x34 }
  - { offsetInCU: 0xA415, offset: 0xA415, size: 0x8, addend: 0x0, symName: __ZNSt3__1eqB7v160006ERKNS_15__tree_iteratorINS_12__value_typeIiiEEPNS_11__tree_nodeIS2_PvEElEES9_, symObjAddr: 0x5034, symBinAddr: 0x1000075E8, symSize: 0x30 }
  - { offsetInCU: 0xA5D5, offset: 0xA5D5, size: 0x8, addend: 0x0, symName: __ZSt28__throw_bad_array_new_lengthB7v160006v, symObjAddr: 0x20FC, symBinAddr: 0x1000046B0, symSize: 0x34 }
  - { offsetInCU: 0xD1BC, offset: 0xD1BC, size: 0x8, addend: 0x0, symName: __Z9mergeSortPii, symObjAddr: 0x0, symBinAddr: 0x1000025B4, symSize: 0x350 }
  - { offsetInCU: 0xD2AD, offset: 0xD2AD, size: 0x8, addend: 0x0, symName: __Z7sortSetPii, symObjAddr: 0x350, symBinAddr: 0x100002904, symSize: 0xFC }
  - { offsetInCU: 0xD3AF, offset: 0xD3AF, size: 0x8, addend: 0x0, symName: __ZNSt3__13setIiNS_4lessIiEENS_9allocatorIiEEEC1B7v160006IPiEET_S8_RKS2_, symObjAddr: 0x44C, symBinAddr: 0x100002A00, symSize: 0x44 }
  - { offsetInCU: 0xD40F, offset: 0xD40F, size: 0x8, addend: 0x0, symName: __ZNSt3__13setIiNS_4lessIiEENS_9allocatorIiEEE5beginB7v160006Ev, symObjAddr: 0x490, symBinAddr: 0x100002A44, symSize: 0x38 }
  - { offsetInCU: 0xD435, offset: 0xD435, size: 0x8, addend: 0x0, symName: __ZNSt3__13setIiNS_4lessIiEENS_9allocatorIiEEE3endB7v160006Ev, symObjAddr: 0x4C8, symBinAddr: 0x100002A7C, symSize: 0x38 }
  - { offsetInCU: 0xD45B, offset: 0xD45B, size: 0x8, addend: 0x0, symName: __ZNKSt3__121__tree_const_iteratorIiPNS_11__tree_nodeIiPvEElEdeB7v160006Ev, symObjAddr: 0x534, symBinAddr: 0x100002AE8, symSize: 0x28 }
  - { offsetInCU: 0xD481, offset: 0xD481, size: 0x8, addend: 0x0, symName: __ZNSt3__121__tree_const_iteratorIiPNS_11__tree_nodeIiPvEElEppB7v160006Ev, symObjAddr: 0x55C, symBinAddr: 0x100002B10, symSize: 0x38 }
  - { offsetInCU: 0xD4A7, offset: 0xD4A7, size: 0x8, addend: 0x0, symName: __ZNSt3__13setIiNS_4lessIiEENS_9allocatorIiEEED1B7v160006Ev, symObjAddr: 0x594, symBinAddr: 0x100002B48, symSize: 0x2C }
  - { offsetInCU: 0xD4D1, offset: 0xD4D1, size: 0x8, addend: 0x0, symName: _main, symObjAddr: 0x5C0, symBinAddr: 0x100002B74, symSize: 0x34C }
  - { offsetInCU: 0xD65D, offset: 0xD65D, size: 0x8, addend: 0x0, symName: __ZNSt3__113basic_ostreamIcNS_11char_traitsIcEEElsB7v160006EPFRS3_S4_E, symObjAddr: 0x954, symBinAddr: 0x100002F08, symSize: 0x2C }
  - { offsetInCU: 0xD690, offset: 0xD690, size: 0x8, addend: 0x0, symName: __Z7sortMapILm11EEvRAT__ii, symObjAddr: 0x9D8, symBinAddr: 0x100002F8C, symSize: 0x188 }
  - { offsetInCU: 0xD7A5, offset: 0xD7A5, size: 0x8, addend: 0x0, symName: __ZNSt3__13setIiNS_4lessIiEENS_9allocatorIiEEEC2B7v160006IPiEET_S8_RKS2_, symObjAddr: 0xB60, symBinAddr: 0x100003114, symSize: 0x74 }
  - { offsetInCU: 0xD805, offset: 0xD805, size: 0x8, addend: 0x0, symName: __ZNSt3__16__treeIiNS_4lessIiEENS_9allocatorIiEEEC1ERKS2_, symObjAddr: 0xBD4, symBinAddr: 0x100003188, symSize: 0x34 }
  - { offsetInCU: 0xD840, offset: 0xD840, size: 0x8, addend: 0x0, symName: __ZNSt3__13setIiNS_4lessIiEENS_9allocatorIiEEE6insertB7v160006IPiEEvT_S8_, symObjAddr: 0xC08, symBinAddr: 0x1000031BC, symSize: 0x80 }
  - { offsetInCU: 0xD8AA, offset: 0xD8AA, size: 0x8, addend: 0x0, symName: __ZNSt3__16__treeIiNS_4lessIiEENS_9allocatorIiEEED1Ev, symObjAddr: 0xC88, symBinAddr: 0x10000323C, symSize: 0x2C }
  - { offsetInCU: 0xD8D6, offset: 0xD8D6, size: 0x8, addend: 0x0, symName: __ZNSt3__16__treeIiNS_4lessIiEENS_9allocatorIiEEEC2ERKS2_, symObjAddr: 0xCB4, symBinAddr: 0x100003268, symSize: 0x7C }
  - { offsetInCU: 0xD911, offset: 0xD911, size: 0x8, addend: 0x0, symName: __ZNSt3__117__compressed_pairINS_15__tree_end_nodeIPNS_16__tree_node_baseIPvEEEENS_9allocatorINS_11__tree_nodeIiS3_EEEEEC1B7v160006ILb1EvEEv, symObjAddr: 0xD30, symBinAddr: 0x1000032E4, symSize: 0x2C }
  - { offsetInCU: 0xD94B, offset: 0xD94B, size: 0x8, addend: 0x0, symName: __ZNSt3__117__compressed_pairImNS_4lessIiEEEC1B7v160006IiRKS2_EEOT_OT0_, symObjAddr: 0xD68, symBinAddr: 0x10000331C, symSize: 0x3C }
  - { offsetInCU: 0xD9A3, offset: 0xD9A3, size: 0x8, addend: 0x0, symName: __ZNSt3__16__treeIiNS_4lessIiEENS_9allocatorIiEEE10__end_nodeB7v160006Ev, symObjAddr: 0xDA4, symBinAddr: 0x100003358, symSize: 0x2C }
  - { offsetInCU: 0xD9C9, offset: 0xD9C9, size: 0x8, addend: 0x0, symName: __ZNSt3__16__treeIiNS_4lessIiEENS_9allocatorIiEEE12__begin_nodeB7v160006Ev, symObjAddr: 0xDD0, symBinAddr: 0x100003384, symSize: 0x14 }
  - { offsetInCU: 0xD9EF, offset: 0xD9EF, size: 0x8, addend: 0x0, symName: __ZNSt3__117__compressed_pairINS_15__tree_end_nodeIPNS_16__tree_node_baseIPvEEEENS_9allocatorINS_11__tree_nodeIiS3_EEEEEC2B7v160006ILb1EvEEv, symObjAddr: 0xDE4, symBinAddr: 0x100003398, symSize: 0x34 }
  - { offsetInCU: 0xDA24, offset: 0xDA24, size: 0x8, addend: 0x0, symName: __ZNSt3__122__compressed_pair_elemINS_15__tree_end_nodeIPNS_16__tree_node_baseIPvEEEELi0ELb0EEC2B7v160006ENS_16__value_init_tagE, symObjAddr: 0xE18, symBinAddr: 0x1000033CC, symSize: 0x2C }
  - { offsetInCU: 0xDA58, offset: 0xDA58, size: 0x8, addend: 0x0, symName: __ZNSt3__122__compressed_pair_elemINS_9allocatorINS_11__tree_nodeIiPvEEEELi1ELb1EEC2B7v160006ENS_16__value_init_tagE, symObjAddr: 0xE44, symBinAddr: 0x1000033F8, symSize: 0x2C }
  - { offsetInCU: 0xDA8C, offset: 0xDA8C, size: 0x8, addend: 0x0, symName: __ZNSt3__115__tree_end_nodeIPNS_16__tree_node_baseIPvEEEC1B7v160006Ev, symObjAddr: 0xE70, symBinAddr: 0x100003424, symSize: 0x2C }
  - { offsetInCU: 0xDAB6, offset: 0xDAB6, size: 0x8, addend: 0x0, symName: __ZNSt3__115__tree_end_nodeIPNS_16__tree_node_baseIPvEEEC2B7v160006Ev, symObjAddr: 0xE9C, symBinAddr: 0x100003450, symSize: 0x18 }
  - { offsetInCU: 0xDAE0, offset: 0xDAE0, size: 0x8, addend: 0x0, symName: __ZNSt3__19allocatorINS_11__tree_nodeIiPvEEEC2B7v160006Ev, symObjAddr: 0xEB4, symBinAddr: 0x100003468, symSize: 0x2C }
  - { offsetInCU: 0xDB0A, offset: 0xDB0A, size: 0x8, addend: 0x0, symName: __ZNSt3__116__non_trivial_ifILb1ENS_9allocatorINS_11__tree_nodeIiPvEEEEEC2B7v160006Ev, symObjAddr: 0xEE0, symBinAddr: 0x100003494, symSize: 0x14 }
  - { offsetInCU: 0xDB34, offset: 0xDB34, size: 0x8, addend: 0x0, symName: __ZNSt3__117__compressed_pairImNS_4lessIiEEEC2B7v160006IiRKS2_EEOT_OT0_, symObjAddr: 0xEF4, symBinAddr: 0x1000034A8, symSize: 0x44 }
  - { offsetInCU: 0xDB8C, offset: 0xDB8C, size: 0x8, addend: 0x0, symName: __ZNSt3__122__compressed_pair_elemImLi0ELb0EEC2B7v160006IivEEOT_, symObjAddr: 0xF38, symBinAddr: 0x1000034EC, symSize: 0x24 }
  - { offsetInCU: 0xDBCE, offset: 0xDBCE, size: 0x8, addend: 0x0, symName: __ZNSt3__122__compressed_pair_elemINS_4lessIiEELi1ELb1EEC2B7v160006IRKS2_vEEOT_, symObjAddr: 0xF5C, symBinAddr: 0x100003510, symSize: 0x18 }
  - { offsetInCU: 0xDC10, offset: 0xDC10, size: 0x8, addend: 0x0, symName: __ZNSt3__114pointer_traitsIPNS_15__tree_end_nodeIPNS_16__tree_node_baseIPvEEEEE10pointer_toB7v160006ERS6_, symObjAddr: 0xF74, symBinAddr: 0x100003528, symSize: 0x14 }
  - { offsetInCU: 0xDC33, offset: 0xDC33, size: 0x8, addend: 0x0, symName: __ZNSt3__117__compressed_pairINS_15__tree_end_nodeIPNS_16__tree_node_baseIPvEEEENS_9allocatorINS_11__tree_nodeIiS3_EEEEE5firstB7v160006Ev, symObjAddr: 0xF88, symBinAddr: 0x10000353C, symSize: 0x24 }
  - { offsetInCU: 0xDC59, offset: 0xDC59, size: 0x8, addend: 0x0, symName: __ZNSt3__122__compressed_pair_elemINS_15__tree_end_nodeIPNS_16__tree_node_baseIPvEEEELi0ELb0EE5__getB7v160006Ev, symObjAddr: 0xFAC, symBinAddr: 0x100003560, symSize: 0x14 }
  - { offsetInCU: 0xDC7F, offset: 0xDC7F, size: 0x8, addend: 0x0, symName: __ZNKSt3__13setIiNS_4lessIiEENS_9allocatorIiEEE4cendB7v160006Ev, symObjAddr: 0xFC0, symBinAddr: 0x100003574, symSize: 0x2C }
  - { offsetInCU: 0xDCA5, offset: 0xDCA5, size: 0x8, addend: 0x0, symName: __ZNSt3__16__treeIiNS_4lessIiEENS_9allocatorIiEEE15__insert_uniqueB7v160006ENS_21__tree_const_iteratorIiPNS_11__tree_nodeIiPvEElEERKi, symObjAddr: 0xFEC, symBinAddr: 0x1000035A0, symSize: 0x64 }
  - { offsetInCU: 0xDCE9, offset: 0xDCE9, size: 0x8, addend: 0x0, symName: __ZNKSt3__13setIiNS_4lessIiEENS_9allocatorIiEEE3endB7v160006Ev, symObjAddr: 0x1050, symBinAddr: 0x100003604, symSize: 0x2C }
  - { offsetInCU: 0xDD0F, offset: 0xDD0F, size: 0x8, addend: 0x0, symName: __ZNKSt3__16__treeIiNS_4lessIiEENS_9allocatorIiEEE3endB7v160006Ev, symObjAddr: 0x107C, symBinAddr: 0x100003630, symSize: 0x34 }
  - { offsetInCU: 0xDD35, offset: 0xDD35, size: 0x8, addend: 0x0, symName: __ZNKSt3__16__treeIiNS_4lessIiEENS_9allocatorIiEEE10__end_nodeB7v160006Ev, symObjAddr: 0x10B0, symBinAddr: 0x100003664, symSize: 0x2C }
  - { offsetInCU: 0xDD5B, offset: 0xDD5B, size: 0x8, addend: 0x0, symName: __ZNSt3__121__tree_const_iteratorIiPNS_11__tree_nodeIiPvEElEC1B7v160006EPNS_15__tree_end_nodeIPNS_16__tree_node_baseIS2_EEEE, symObjAddr: 0x10DC, symBinAddr: 0x100003690, symSize: 0x34 }
  - { offsetInCU: 0xDD94, offset: 0xDD94, size: 0x8, addend: 0x0, symName: __ZNKSt3__117__compressed_pairINS_15__tree_end_nodeIPNS_16__tree_node_baseIPvEEEENS_9allocatorINS_11__tree_nodeIiS3_EEEEE5firstB7v160006Ev, symObjAddr: 0x1110, symBinAddr: 0x1000036C4, symSize: 0x24 }
  - { offsetInCU: 0xDDBA, offset: 0xDDBA, size: 0x8, addend: 0x0, symName: __ZNKSt3__122__compressed_pair_elemINS_15__tree_end_nodeIPNS_16__tree_node_baseIPvEEEELi0ELb0EE5__getB7v160006Ev, symObjAddr: 0x1134, symBinAddr: 0x1000036E8, symSize: 0x14 }
  - { offsetInCU: 0xDDE0, offset: 0xDDE0, size: 0x8, addend: 0x0, symName: __ZNSt3__121__tree_const_iteratorIiPNS_11__tree_nodeIiPvEElEC2B7v160006EPNS_15__tree_end_nodeIPNS_16__tree_node_baseIS2_EEEE, symObjAddr: 0x1148, symBinAddr: 0x1000036FC, symSize: 0x20 }
  - { offsetInCU: 0xDE19, offset: 0xDE19, size: 0x8, addend: 0x0, symName: __ZNSt3__16__treeIiNS_4lessIiEENS_9allocatorIiEEE30__emplace_hint_unique_key_argsIiJRKiEEENS_4pairINS_15__tree_iteratorIiPNS_11__tree_nodeIiPvEElEEbEENS_21__tree_const_iteratorIiSE_lEERKT_DpOT0_, symObjAddr: 0x1168, symBinAddr: 0x10000371C, symSize: 0x104 }
  - { offsetInCU: 0xDEE5, offset: 0xDEE5, size: 0x8, addend: 0x0, symName: __ZNSt3__122__tree_key_value_typesIiE9__get_keyB7v160006ERKi, symObjAddr: 0x126C, symBinAddr: 0x100003820, symSize: 0x14 }
  - { offsetInCU: 0xDF09, offset: 0xDF09, size: 0x8, addend: 0x0, symName: __ZNSt3__16__treeIiNS_4lessIiEENS_9allocatorIiEEE12__find_equalIiEERPNS_16__tree_node_baseIPvEENS_21__tree_const_iteratorIiPNS_11__tree_nodeIiS8_EElEERPNS_15__tree_end_nodeISA_EESB_RKT_, symObjAddr: 0x1280, symBinAddr: 0x100003834, symSize: 0x304 }
  - { offsetInCU: 0xDFB2, offset: 0xDFB2, size: 0x8, addend: 0x0, symName: __ZNSt3__16__treeIiNS_4lessIiEENS_9allocatorIiEEE16__construct_nodeIJRKiEEENS_10unique_ptrINS_11__tree_nodeIiPvEENS_22__tree_node_destructorINS3_ISC_EEEEEEDpOT_, symObjAddr: 0x1584, symBinAddr: 0x100003B38, symSize: 0x110 }
  - { offsetInCU: 0xE013, offset: 0xE013, size: 0x8, addend: 0x0, symName: __ZNSt3__16__treeIiNS_4lessIiEENS_9allocatorIiEEE16__insert_node_atEPNS_15__tree_end_nodeIPNS_16__tree_node_baseIPvEEEERSA_SA_, symObjAddr: 0x1694, symBinAddr: 0x100003C48, symSize: 0xCC }
  - { offsetInCU: 0xE068, offset: 0xE068, size: 0x8, addend: 0x0, symName: __ZNKSt3__110unique_ptrINS_11__tree_nodeIiPvEENS_22__tree_node_destructorINS_9allocatorIS3_EEEEE3getB7v160006Ev, symObjAddr: 0x1760, symBinAddr: 0x100003D14, symSize: 0x28 }
  - { offsetInCU: 0xE08E, offset: 0xE08E, size: 0x8, addend: 0x0, symName: __ZNSt3__110unique_ptrINS_11__tree_nodeIiPvEENS_22__tree_node_destructorINS_9allocatorIS3_EEEEE7releaseB7v160006Ev, symObjAddr: 0x1788, symBinAddr: 0x100003D3C, symSize: 0x44 }
  - { offsetInCU: 0xE0C3, offset: 0xE0C3, size: 0x8, addend: 0x0, symName: __ZNSt3__110unique_ptrINS_11__tree_nodeIiPvEENS_22__tree_node_destructorINS_9allocatorIS3_EEEEED1B7v160006Ev, symObjAddr: 0x17CC, symBinAddr: 0x100003D80, symSize: 0x2C }
  - { offsetInCU: 0xE0ED, offset: 0xE0ED, size: 0x8, addend: 0x0, symName: __ZNSt3__115__tree_iteratorIiPNS_11__tree_nodeIiPvEElEC1B7v160006ES4_, symObjAddr: 0x17F8, symBinAddr: 0x100003DAC, symSize: 0x34 }
  - { offsetInCU: 0xE130, offset: 0xE130, size: 0x8, addend: 0x0, symName: __ZNSt3__14pairINS_15__tree_iteratorIiPNS_11__tree_nodeIiPvEElEEbEC1B7v160006IS6_RbLS3_0EEEOT_OT0_, symObjAddr: 0x182C, symBinAddr: 0x100003DE0, symSize: 0x3C }
  - { offsetInCU: 0xE18E, offset: 0xE18E, size: 0x8, addend: 0x0, symName: __ZNSt3__16__treeIiNS_4lessIiEENS_9allocatorIiEEE3endB7v160006Ev, symObjAddr: 0x1898, symBinAddr: 0x100003E4C, symSize: 0x34 }
  - { offsetInCU: 0xE1B4, offset: 0xE1B4, size: 0x8, addend: 0x0, symName: __ZNSt3__121__tree_const_iteratorIiPNS_11__tree_nodeIiPvEElEC1B7v160006ENS_15__tree_iteratorIiS4_lEE, symObjAddr: 0x18CC, symBinAddr: 0x100003E80, symSize: 0x34 }
  - { offsetInCU: 0xE1ED, offset: 0xE1ED, size: 0x8, addend: 0x0, symName: __ZNSt3__16__treeIiNS_4lessIiEENS_9allocatorIiEEE10value_compB7v160006Ev, symObjAddr: 0x1900, symBinAddr: 0x100003EB4, symSize: 0x28 }
  - { offsetInCU: 0xE213, offset: 0xE213, size: 0x8, addend: 0x0, symName: __ZNKSt3__14lessIiEclB7v160006ERKiS3_, symObjAddr: 0x1928, symBinAddr: 0x100003EDC, symSize: 0x34 }
  - { offsetInCU: 0xE257, offset: 0xE257, size: 0x8, addend: 0x0, symName: __ZNSt3__16__treeIiNS_4lessIiEENS_9allocatorIiEEE5beginB7v160006Ev, symObjAddr: 0x195C, symBinAddr: 0x100003F10, symSize: 0x34 }
  - { offsetInCU: 0xE27D, offset: 0xE27D, size: 0x8, addend: 0x0, symName: __ZNSt3__121__tree_const_iteratorIiPNS_11__tree_nodeIiPvEElEmmB7v160006Ev, symObjAddr: 0x1990, symBinAddr: 0x100003F44, symSize: 0x38 }
  - { offsetInCU: 0xE2A3, offset: 0xE2A3, size: 0x8, addend: 0x0, symName: __ZNSt3__16__treeIiNS_4lessIiEENS_9allocatorIiEEE12__find_equalIiEERPNS_16__tree_node_baseIPvEERPNS_15__tree_end_nodeISA_EERKT_, symObjAddr: 0x19C8, symBinAddr: 0x100003F7C, symSize: 0x184 }
  - { offsetInCU: 0xE310, offset: 0xE310, size: 0x8, addend: 0x0, symName: __ZNKSt3__121__tree_const_iteratorIiPNS_11__tree_nodeIiPvEElE8__get_npB7v160006Ev, symObjAddr: 0x1B9C, symBinAddr: 0x100004150, symSize: 0x18 }
  - { offsetInCU: 0xE336, offset: 0xE336, size: 0x8, addend: 0x0, symName: __ZNSt3__115__tree_iteratorIiPNS_11__tree_nodeIiPvEElEC1B7v160006EPNS_15__tree_end_nodeIPNS_16__tree_node_baseIS2_EEEE, symObjAddr: 0x1BB4, symBinAddr: 0x100004168, symSize: 0x34 }
  - { offsetInCU: 0xE36F, offset: 0xE36F, size: 0x8, addend: 0x0, symName: __ZNSt3__115__tree_iteratorIiPNS_11__tree_nodeIiPvEElEC2B7v160006EPNS_15__tree_end_nodeIPNS_16__tree_node_baseIS2_EEEE, symObjAddr: 0x1BE8, symBinAddr: 0x10000419C, symSize: 0x20 }
  - { offsetInCU: 0xE3A8, offset: 0xE3A8, size: 0x8, addend: 0x0, symName: __ZNSt3__121__tree_const_iteratorIiPNS_11__tree_nodeIiPvEElEC2B7v160006ENS_15__tree_iteratorIiS4_lEE, symObjAddr: 0x1C08, symBinAddr: 0x1000041BC, symSize: 0x20 }
  - { offsetInCU: 0xE3E1, offset: 0xE3E1, size: 0x8, addend: 0x0, symName: __ZNSt3__117__compressed_pairImNS_4lessIiEEE6secondB7v160006Ev, symObjAddr: 0x1C28, symBinAddr: 0x1000041DC, symSize: 0x24 }
  - { offsetInCU: 0xE407, offset: 0xE407, size: 0x8, addend: 0x0, symName: __ZNSt3__122__compressed_pair_elemINS_4lessIiEELi1ELb1EE5__getB7v160006Ev, symObjAddr: 0x1C4C, symBinAddr: 0x100004200, symSize: 0x14 }
  - { offsetInCU: 0xE42D, offset: 0xE42D, size: 0x8, addend: 0x0, symName: __ZNKSt3__116__tree_node_baseIPvE15__parent_unsafeB7v160006Ev, symObjAddr: 0x1D70, symBinAddr: 0x100004324, symSize: 0x18 }
  - { offsetInCU: 0xE453, offset: 0xE453, size: 0x8, addend: 0x0, symName: __ZNKSt3__16__treeIiNS_4lessIiEENS_9allocatorIiEEE6__rootB7v160006Ev, symObjAddr: 0x1D88, symBinAddr: 0x10000433C, symSize: 0x28 }
  - { offsetInCU: 0xE479, offset: 0xE479, size: 0x8, addend: 0x0, symName: __ZNKSt3__16__treeIiNS_4lessIiEENS_9allocatorIiEEE10__root_ptrEv, symObjAddr: 0x1DB0, symBinAddr: 0x100004364, symSize: 0x24 }
  - { offsetInCU: 0xE49F, offset: 0xE49F, size: 0x8, addend: 0x0, symName: __ZNSt3__16__treeIiNS_4lessIiEENS_9allocatorIiEEE12__node_allocB7v160006Ev, symObjAddr: 0x1EDC, symBinAddr: 0x100004490, symSize: 0x28 }
  - { offsetInCU: 0xE4C5, offset: 0xE4C5, size: 0x8, addend: 0x0, symName: __ZNSt3__116allocator_traitsINS_9allocatorINS_11__tree_nodeIiPvEEEEE8allocateB7v160006ERS5_m, symObjAddr: 0x1F04, symBinAddr: 0x1000044B8, symSize: 0x2C }
  - { offsetInCU: 0xE4F8, offset: 0xE4F8, size: 0x8, addend: 0x0, symName: __ZNSt3__122__tree_node_destructorINS_9allocatorINS_11__tree_nodeIiPvEEEEEC1B7v160006ERS5_b, symObjAddr: 0x1F30, symBinAddr: 0x1000044E4, symSize: 0x48 }
  - { offsetInCU: 0xE545, offset: 0xE545, size: 0x8, addend: 0x0, symName: __ZNSt3__110unique_ptrINS_11__tree_nodeIiPvEENS_22__tree_node_destructorINS_9allocatorIS3_EEEEEC1B7v160006ILb1EvEEPS3_NS_16__dependent_typeINS_27__unique_ptr_deleter_sfinaeIS7_EEXT_EE20__good_rval_ref_typeE, symObjAddr: 0x1F78, symBinAddr: 0x10000452C, symSize: 0x3C }
  - { offsetInCU: 0xE596, offset: 0xE596, size: 0x8, addend: 0x0, symName: __ZNSt3__116allocator_traitsINS_9allocatorINS_11__tree_nodeIiPvEEEEE9constructB7v160006IiJRKiEvEEvRS5_PT_DpOT0_, symObjAddr: 0x1FB4, symBinAddr: 0x100004568, symSize: 0x34 }
  - { offsetInCU: 0xE5ED, offset: 0xE5ED, size: 0x8, addend: 0x0, symName: __ZNSt3__122__tree_key_value_typesIiE9__get_ptrB7v160006ERi, symObjAddr: 0x1FE8, symBinAddr: 0x10000459C, symSize: 0x14 }
  - { offsetInCU: 0xE611, offset: 0xE611, size: 0x8, addend: 0x0, symName: __ZNKSt3__110unique_ptrINS_11__tree_nodeIiPvEENS_22__tree_node_destructorINS_9allocatorIS3_EEEEEptB7v160006Ev, symObjAddr: 0x1FFC, symBinAddr: 0x1000045B0, symSize: 0x28 }
  - { offsetInCU: 0xE637, offset: 0xE637, size: 0x8, addend: 0x0, symName: __ZNSt3__110unique_ptrINS_11__tree_nodeIiPvEENS_22__tree_node_destructorINS_9allocatorIS3_EEEEE11get_deleterB7v160006Ev, symObjAddr: 0x2024, symBinAddr: 0x1000045D8, symSize: 0x24 }
  - { offsetInCU: 0xE65D, offset: 0xE65D, size: 0x8, addend: 0x0, symName: __ZNSt3__117__compressed_pairINS_15__tree_end_nodeIPNS_16__tree_node_baseIPvEEEENS_9allocatorINS_11__tree_nodeIiS3_EEEEE6secondB7v160006Ev, symObjAddr: 0x2048, symBinAddr: 0x1000045FC, symSize: 0x24 }
  - { offsetInCU: 0xE683, offset: 0xE683, size: 0x8, addend: 0x0, symName: __ZNSt3__122__compressed_pair_elemINS_9allocatorINS_11__tree_nodeIiPvEEEELi1ELb1EE5__getB7v160006Ev, symObjAddr: 0x206C, symBinAddr: 0x100004620, symSize: 0x14 }
  - { offsetInCU: 0xE6A9, offset: 0xE6A9, size: 0x8, addend: 0x0, symName: __ZNSt3__19allocatorINS_11__tree_nodeIiPvEEE8allocateB7v160006Em, symObjAddr: 0x2080, symBinAddr: 0x100004634, symSize: 0x58 }
  - { offsetInCU: 0xE6E7, offset: 0xE6E7, size: 0x8, addend: 0x0, symName: __ZNSt3__116allocator_traitsINS_9allocatorINS_11__tree_nodeIiPvEEEEE8max_sizeB7v160006IS5_vEEmRKS5_, symObjAddr: 0x20D8, symBinAddr: 0x10000468C, symSize: 0x24 }
  - { offsetInCU: 0xE715, offset: 0xE715, size: 0x8, addend: 0x0, symName: __ZNKSt3__19allocatorINS_11__tree_nodeIiPvEEE8max_sizeB7v160006Ev, symObjAddr: 0x2190, symBinAddr: 0x100004744, symSize: 0x14 }
  - { offsetInCU: 0xE73B, offset: 0xE73B, size: 0x8, addend: 0x0, symName: __ZNSt3__122__tree_node_destructorINS_9allocatorINS_11__tree_nodeIiPvEEEEEC2B7v160006ERS5_b, symObjAddr: 0x2214, symBinAddr: 0x1000047C8, symSize: 0x38 }
  - { offsetInCU: 0xE783, offset: 0xE783, size: 0x8, addend: 0x0, symName: __ZNSt3__110unique_ptrINS_11__tree_nodeIiPvEENS_22__tree_node_destructorINS_9allocatorIS3_EEEEEC2B7v160006ILb1EvEEPS3_NS_16__dependent_typeINS_27__unique_ptr_deleter_sfinaeIS7_EEXT_EE20__good_rval_ref_typeE, symObjAddr: 0x224C, symBinAddr: 0x100004800, symSize: 0x48 }
  - { offsetInCU: 0xE7D4, offset: 0xE7D4, size: 0x8, addend: 0x0, symName: __ZNSt3__117__compressed_pairIPNS_11__tree_nodeIiPvEENS_22__tree_node_destructorINS_9allocatorIS3_EEEEEC1B7v160006IRS4_S8_EEOT_OT0_, symObjAddr: 0x2294, symBinAddr: 0x100004848, symSize: 0x3C }
  - { offsetInCU: 0xE82C, offset: 0xE82C, size: 0x8, addend: 0x0, symName: __ZNSt3__117__compressed_pairIPNS_11__tree_nodeIiPvEENS_22__tree_node_destructorINS_9allocatorIS3_EEEEEC2B7v160006IRS4_S8_EEOT_OT0_, symObjAddr: 0x22D0, symBinAddr: 0x100004884, symSize: 0x48 }
  - { offsetInCU: 0xE884, offset: 0xE884, size: 0x8, addend: 0x0, symName: __ZNSt3__122__compressed_pair_elemIPNS_11__tree_nodeIiPvEELi0ELb0EEC2B7v160006IRS4_vEEOT_, symObjAddr: 0x2318, symBinAddr: 0x1000048CC, symSize: 0x24 }
  - { offsetInCU: 0xE8C6, offset: 0xE8C6, size: 0x8, addend: 0x0, symName: __ZNSt3__122__compressed_pair_elemINS_22__tree_node_destructorINS_9allocatorINS_11__tree_nodeIiPvEEEEEELi1ELb0EEC2B7v160006IS7_vEEOT_, symObjAddr: 0x233C, symBinAddr: 0x1000048F0, symSize: 0x24 }
  - { offsetInCU: 0xE908, offset: 0xE908, size: 0x8, addend: 0x0, symName: __ZNSt3__19allocatorINS_11__tree_nodeIiPvEEE9constructB7v160006IiJRKiEEEvPT_DpOT0_, symObjAddr: 0x2360, symBinAddr: 0x100004914, symSize: 0x28 }
  - { offsetInCU: 0xE95E, offset: 0xE95E, size: 0x8, addend: 0x0, symName: __ZNKSt3__117__compressed_pairIPNS_11__tree_nodeIiPvEENS_22__tree_node_destructorINS_9allocatorIS3_EEEEE5firstB7v160006Ev, symObjAddr: 0x2388, symBinAddr: 0x10000493C, symSize: 0x24 }
  - { offsetInCU: 0xE984, offset: 0xE984, size: 0x8, addend: 0x0, symName: __ZNKSt3__122__compressed_pair_elemIPNS_11__tree_nodeIiPvEELi0ELb0EE5__getB7v160006Ev, symObjAddr: 0x23AC, symBinAddr: 0x100004960, symSize: 0x14 }
  - { offsetInCU: 0xE9AA, offset: 0xE9AA, size: 0x8, addend: 0x0, symName: __ZNSt3__117__compressed_pairIPNS_11__tree_nodeIiPvEENS_22__tree_node_destructorINS_9allocatorIS3_EEEEE6secondB7v160006Ev, symObjAddr: 0x23C0, symBinAddr: 0x100004974, symSize: 0x28 }
  - { offsetInCU: 0xE9D0, offset: 0xE9D0, size: 0x8, addend: 0x0, symName: __ZNSt3__122__compressed_pair_elemINS_22__tree_node_destructorINS_9allocatorINS_11__tree_nodeIiPvEEEEEELi1ELb0EE5__getB7v160006Ev, symObjAddr: 0x23E8, symBinAddr: 0x10000499C, symSize: 0x14 }
  - { offsetInCU: 0xE9F6, offset: 0xE9F6, size: 0x8, addend: 0x0, symName: __ZNSt3__16__treeIiNS_4lessIiEENS_9allocatorIiEEE4sizeB7v160006Ev, symObjAddr: 0x2678, symBinAddr: 0x100004C2C, symSize: 0x28 }
  - { offsetInCU: 0xEA1C, offset: 0xEA1C, size: 0x8, addend: 0x0, symName: __ZNSt3__116__tree_node_baseIPvE12__set_parentB7v160006EPS2_, symObjAddr: 0x2844, symBinAddr: 0x100004DF8, symSize: 0x20 }
  - { offsetInCU: 0xEA51, offset: 0xEA51, size: 0x8, addend: 0x0, symName: __ZNSt3__117__compressed_pairImNS_4lessIiEEE5firstB7v160006Ev, symObjAddr: 0x2864, symBinAddr: 0x100004E18, symSize: 0x24 }
  - { offsetInCU: 0xEA77, offset: 0xEA77, size: 0x8, addend: 0x0, symName: __ZNSt3__122__compressed_pair_elemImLi0ELb0EE5__getB7v160006Ev, symObjAddr: 0x2888, symBinAddr: 0x100004E3C, symSize: 0x14 }
  - { offsetInCU: 0xEA9D, offset: 0xEA9D, size: 0x8, addend: 0x0, symName: __ZNSt3__117__compressed_pairIPNS_11__tree_nodeIiPvEENS_22__tree_node_destructorINS_9allocatorIS3_EEEEE5firstB7v160006Ev, symObjAddr: 0x289C, symBinAddr: 0x100004E50, symSize: 0x24 }
  - { offsetInCU: 0xEAC3, offset: 0xEAC3, size: 0x8, addend: 0x0, symName: __ZNSt3__122__compressed_pair_elemIPNS_11__tree_nodeIiPvEELi0ELb0EE5__getB7v160006Ev, symObjAddr: 0x28C0, symBinAddr: 0x100004E74, symSize: 0x14 }
  - { offsetInCU: 0xEAE9, offset: 0xEAE9, size: 0x8, addend: 0x0, symName: __ZNSt3__110unique_ptrINS_11__tree_nodeIiPvEENS_22__tree_node_destructorINS_9allocatorIS3_EEEEED2B7v160006Ev, symObjAddr: 0x28D4, symBinAddr: 0x100004E88, symSize: 0x30 }
  - { offsetInCU: 0xEB13, offset: 0xEB13, size: 0x8, addend: 0x0, symName: __ZNSt3__110unique_ptrINS_11__tree_nodeIiPvEENS_22__tree_node_destructorINS_9allocatorIS3_EEEEE5resetB7v160006EPS3_, symObjAddr: 0x2904, symBinAddr: 0x100004EB8, symSize: 0x78 }
  - { offsetInCU: 0xEB57, offset: 0xEB57, size: 0x8, addend: 0x0, symName: __ZNSt3__122__tree_node_destructorINS_9allocatorINS_11__tree_nodeIiPvEEEEEclB7v160006EPS4_, symObjAddr: 0x297C, symBinAddr: 0x100004F30, symSize: 0x90 }
  - { offsetInCU: 0xEB8C, offset: 0xEB8C, size: 0x8, addend: 0x0, symName: __ZNSt3__116allocator_traitsINS_9allocatorINS_11__tree_nodeIiPvEEEEE7destroyB7v160006IivvEEvRS5_PT_, symObjAddr: 0x2A0C, symBinAddr: 0x100004FC0, symSize: 0x14 }
  - { offsetInCU: 0xEBC7, offset: 0xEBC7, size: 0x8, addend: 0x0, symName: __ZNSt3__116allocator_traitsINS_9allocatorINS_11__tree_nodeIiPvEEEEE10deallocateB7v160006ERS5_PS4_m, symObjAddr: 0x2A20, symBinAddr: 0x100004FD4, symSize: 0x34 }
  - { offsetInCU: 0xEC09, offset: 0xEC09, size: 0x8, addend: 0x0, symName: __ZNSt3__19allocatorINS_11__tree_nodeIiPvEEE10deallocateB7v160006EPS3_m, symObjAddr: 0x2A54, symBinAddr: 0x100005008, symSize: 0x40 }
  - { offsetInCU: 0xEC4B, offset: 0xEC4B, size: 0x8, addend: 0x0, symName: __ZNSt3__115__tree_iteratorIiPNS_11__tree_nodeIiPvEElEC2B7v160006ES4_, symObjAddr: 0x2B9C, symBinAddr: 0x100005150, symSize: 0x20 }
  - { offsetInCU: 0xEC84, offset: 0xEC84, size: 0x8, addend: 0x0, symName: __ZNSt3__14pairINS_15__tree_iteratorIiPNS_11__tree_nodeIiPvEElEEbEC2B7v160006IS6_RbLS3_0EEEOT_OT0_, symObjAddr: 0x2BBC, symBinAddr: 0x100005170, symSize: 0x38 }
  - { offsetInCU: 0xECE2, offset: 0xECE2, size: 0x8, addend: 0x0, symName: __ZNSt3__16__treeIiNS_4lessIiEENS_9allocatorIiEEED2Ev, symObjAddr: 0x2BF4, symBinAddr: 0x1000051A8, symSize: 0x38 }
  - { offsetInCU: 0xED0E, offset: 0xED0E, size: 0x8, addend: 0x0, symName: __ZNSt3__16__treeIiNS_4lessIiEENS_9allocatorIiEEE7destroyEPNS_11__tree_nodeIiPvEE, symObjAddr: 0x2C2C, symBinAddr: 0x1000051E0, symSize: 0x9C }
  - { offsetInCU: 0xED62, offset: 0xED62, size: 0x8, addend: 0x0, symName: __ZNSt3__13setIiNS_4lessIiEENS_9allocatorIiEEED2B7v160006Ev, symObjAddr: 0x2CC8, symBinAddr: 0x10000527C, symSize: 0x2C }
  - { offsetInCU: 0xED8C, offset: 0xED8C, size: 0x8, addend: 0x0, symName: __ZNSt3__111char_traitsIcE6lengthEPKc, symObjAddr: 0x2FA0, symBinAddr: 0x100005554, symSize: 0x34 }
  - { offsetInCU: 0xEDCD, offset: 0xEDCD, size: 0x8, addend: 0x0, symName: __ZNKSt3__113basic_ostreamIcNS_11char_traitsIcEEE6sentrycvbB7v160006Ev, symObjAddr: 0x2FD4, symBinAddr: 0x100005588, symSize: 0x1C }
  - { offsetInCU: 0xEDF3, offset: 0xEDF3, size: 0x8, addend: 0x0, symName: __ZNSt3__119ostreambuf_iteratorIcNS_11char_traitsIcEEEC1B7v160006ERNS_13basic_ostreamIcS2_EE, symObjAddr: 0x3230, symBinAddr: 0x1000057E4, symSize: 0x34 }
  - { offsetInCU: 0xEE2B, offset: 0xEE2B, size: 0x8, addend: 0x0, symName: __ZNKSt3__18ios_base5flagsB7v160006Ev, symObjAddr: 0x3264, symBinAddr: 0x100005818, symSize: 0x18 }
  - { offsetInCU: 0xEE53, offset: 0xEE53, size: 0x8, addend: 0x0, symName: __ZNKSt3__19basic_iosIcNS_11char_traitsIcEEE4fillB7v160006Ev, symObjAddr: 0x327C, symBinAddr: 0x100005830, symSize: 0x64 }
  - { offsetInCU: 0xEE7B, offset: 0xEE7B, size: 0x8, addend: 0x0, symName: __ZNKSt3__119ostreambuf_iteratorIcNS_11char_traitsIcEEE6failedB7v160006Ev, symObjAddr: 0x32E0, symBinAddr: 0x100005894, symSize: 0x24 }
  - { offsetInCU: 0xEEA1, offset: 0xEEA1, size: 0x8, addend: 0x0, symName: __ZNSt3__19basic_iosIcNS_11char_traitsIcEEE8setstateB7v160006Ej, symObjAddr: 0x3304, symBinAddr: 0x1000058B8, symSize: 0x2C }
  - { offsetInCU: 0xEED6, offset: 0xEED6, size: 0x8, addend: 0x0, symName: __ZNKSt3__18ios_base5widthB7v160006Ev, symObjAddr: 0x3330, symBinAddr: 0x1000058E4, symSize: 0x18 }
  - { offsetInCU: 0xEEFE, offset: 0xEEFE, size: 0x8, addend: 0x0, symName: __ZNSt3__115basic_streambufIcNS_11char_traitsIcEEE5sputnB7v160006EPKcl, symObjAddr: 0x3348, symBinAddr: 0x1000058FC, symSize: 0x3C }
  - { offsetInCU: 0xEF40, offset: 0xEF40, size: 0x8, addend: 0x0, symName: __ZNSt3__112basic_stringIcNS_11char_traitsIcEENS_9allocatorIcEEEC1B7v160006Emc, symObjAddr: 0x3384, symBinAddr: 0x100005938, symSize: 0x3C }
  - { offsetInCU: 0xEF88, offset: 0xEF88, size: 0x8, addend: 0x0, symName: __ZNSt3__112basic_stringIcNS_11char_traitsIcEENS_9allocatorIcEEE4dataB7v160006Ev, symObjAddr: 0x33C0, symBinAddr: 0x100005974, symSize: 0x28 }
  - { offsetInCU: 0xEFAE, offset: 0xEFAE, size: 0x8, addend: 0x0, symName: __ZNSt3__18ios_base5widthB7v160006El, symObjAddr: 0x33E8, symBinAddr: 0x10000599C, symSize: 0x2C }
  - { offsetInCU: 0xEFF4, offset: 0xEFF4, size: 0x8, addend: 0x0, symName: __ZNSt3__112basic_stringIcNS_11char_traitsIcEENS_9allocatorIcEEEC2B7v160006Emc, symObjAddr: 0x3414, symBinAddr: 0x1000059C8, symSize: 0x54 }
  - { offsetInCU: 0xF041, offset: 0xF041, size: 0x8, addend: 0x0, symName: __ZNSt3__117__compressed_pairINS_12basic_stringIcNS_11char_traitsIcEENS_9allocatorIcEEE5__repES5_EC1B7v160006INS_18__default_init_tagESA_EEOT_OT0_, symObjAddr: 0x3468, symBinAddr: 0x100005A1C, symSize: 0x3C }
  - { offsetInCU: 0xF099, offset: 0xF099, size: 0x8, addend: 0x0, symName: __ZNSt3__117__compressed_pairINS_12basic_stringIcNS_11char_traitsIcEENS_9allocatorIcEEE5__repES5_EC2B7v160006INS_18__default_init_tagESA_EEOT_OT0_, symObjAddr: 0x34B4, symBinAddr: 0x100005A68, symSize: 0x3C }
  - { offsetInCU: 0xF0F1, offset: 0xF0F1, size: 0x8, addend: 0x0, symName: __ZNSt3__122__compressed_pair_elemINS_12basic_stringIcNS_11char_traitsIcEENS_9allocatorIcEEE5__repELi0ELb0EEC2B7v160006ENS_18__default_init_tagE, symObjAddr: 0x34F0, symBinAddr: 0x100005AA4, symSize: 0x14 }
  - { offsetInCU: 0xF125, offset: 0xF125, size: 0x8, addend: 0x0, symName: __ZNSt3__122__compressed_pair_elemINS_9allocatorIcEELi1ELb1EEC2B7v160006ENS_18__default_init_tagE, symObjAddr: 0x3504, symBinAddr: 0x100005AB8, symSize: 0x2C }
  - { offsetInCU: 0xF159, offset: 0xF159, size: 0x8, addend: 0x0, symName: __ZNSt3__19allocatorIcEC2B7v160006Ev, symObjAddr: 0x3530, symBinAddr: 0x100005AE4, symSize: 0x2C }
  - { offsetInCU: 0xF183, offset: 0xF183, size: 0x8, addend: 0x0, symName: __ZNSt3__116__non_trivial_ifILb1ENS_9allocatorIcEEEC2B7v160006Ev, symObjAddr: 0x355C, symBinAddr: 0x100005B10, symSize: 0x14 }
  - { offsetInCU: 0xF1AD, offset: 0xF1AD, size: 0x8, addend: 0x0, symName: __ZNSt3__112basic_stringIcNS_11char_traitsIcEENS_9allocatorIcEEE13__get_pointerB7v160006Ev, symObjAddr: 0x3584, symBinAddr: 0x100005B38, symSize: 0x54 }
  - { offsetInCU: 0xF1D3, offset: 0xF1D3, size: 0x8, addend: 0x0, symName: __ZNKSt3__112basic_stringIcNS_11char_traitsIcEENS_9allocatorIcEEE9__is_longB7v160006Ev, symObjAddr: 0x35D8, symBinAddr: 0x100005B8C, symSize: 0x38 }
  - { offsetInCU: 0xF1F9, offset: 0xF1F9, size: 0x8, addend: 0x0, symName: __ZNSt3__112basic_stringIcNS_11char_traitsIcEENS_9allocatorIcEEE18__get_long_pointerB7v160006Ev, symObjAddr: 0x3610, symBinAddr: 0x100005BC4, symSize: 0x28 }
  - { offsetInCU: 0xF21F, offset: 0xF21F, size: 0x8, addend: 0x0, symName: __ZNSt3__112basic_stringIcNS_11char_traitsIcEENS_9allocatorIcEEE19__get_short_pointerB7v160006Ev, symObjAddr: 0x3638, symBinAddr: 0x100005BEC, symSize: 0x28 }
  - { offsetInCU: 0xF245, offset: 0xF245, size: 0x8, addend: 0x0, symName: __ZNKSt3__117__compressed_pairINS_12basic_stringIcNS_11char_traitsIcEENS_9allocatorIcEEE5__repES5_E5firstB7v160006Ev, symObjAddr: 0x3660, symBinAddr: 0x100005C14, symSize: 0x24 }
  - { offsetInCU: 0xF26B, offset: 0xF26B, size: 0x8, addend: 0x0, symName: __ZNKSt3__122__compressed_pair_elemINS_12basic_stringIcNS_11char_traitsIcEENS_9allocatorIcEEE5__repELi0ELb0EE5__getB7v160006Ev, symObjAddr: 0x3684, symBinAddr: 0x100005C38, symSize: 0x14 }
  - { offsetInCU: 0xF291, offset: 0xF291, size: 0x8, addend: 0x0, symName: __ZNSt3__117__compressed_pairINS_12basic_stringIcNS_11char_traitsIcEENS_9allocatorIcEEE5__repES5_E5firstB7v160006Ev, symObjAddr: 0x3698, symBinAddr: 0x100005C4C, symSize: 0x24 }
  - { offsetInCU: 0xF2B7, offset: 0xF2B7, size: 0x8, addend: 0x0, symName: __ZNSt3__122__compressed_pair_elemINS_12basic_stringIcNS_11char_traitsIcEENS_9allocatorIcEEE5__repELi0ELb0EE5__getB7v160006Ev, symObjAddr: 0x36BC, symBinAddr: 0x100005C70, symSize: 0x14 }
  - { offsetInCU: 0xF2DD, offset: 0xF2DD, size: 0x8, addend: 0x0, symName: __ZNSt3__114pointer_traitsIPcE10pointer_toB7v160006ERc, symObjAddr: 0x36D0, symBinAddr: 0x100005C84, symSize: 0x14 }
  - { offsetInCU: 0xF300, offset: 0xF300, size: 0x8, addend: 0x0, symName: __ZNSt3__119ostreambuf_iteratorIcNS_11char_traitsIcEEEC2B7v160006ERNS_13basic_ostreamIcS2_EE, symObjAddr: 0x36E4, symBinAddr: 0x100005C98, symSize: 0x54 }
  - { offsetInCU: 0xF338, offset: 0xF338, size: 0x8, addend: 0x0, symName: __ZNKSt3__19basic_iosIcNS_11char_traitsIcEEE5rdbufB7v160006Ev, symObjAddr: 0x3738, symBinAddr: 0x100005CEC, symSize: 0x24 }
  - { offsetInCU: 0xF360, offset: 0xF360, size: 0x8, addend: 0x0, symName: __ZNKSt3__18ios_base5rdbufB7v160006Ev, symObjAddr: 0x375C, symBinAddr: 0x100005D10, symSize: 0x18 }
  - { offsetInCU: 0xF386, offset: 0xF386, size: 0x8, addend: 0x0, symName: __ZNSt3__111char_traitsIcE11eq_int_typeEii, symObjAddr: 0x3774, symBinAddr: 0x100005D28, symSize: 0x28 }
  - { offsetInCU: 0xF3B7, offset: 0xF3B7, size: 0x8, addend: 0x0, symName: __ZNSt3__111char_traitsIcE3eofEv, symObjAddr: 0x379C, symBinAddr: 0x100005D50, symSize: 0x8 }
  - { offsetInCU: 0xF3CB, offset: 0xF3CB, size: 0x8, addend: 0x0, symName: __ZNKSt3__19basic_iosIcNS_11char_traitsIcEEE5widenB7v160006Ec, symObjAddr: 0x37A4, symBinAddr: 0x100005D58, symSize: 0x84 }
  - { offsetInCU: 0xF439, offset: 0xF439, size: 0x8, addend: 0x0, symName: __ZNKSt3__15ctypeIcE5widenB7v160006Ec, symObjAddr: 0x3854, symBinAddr: 0x100005E08, symSize: 0x38 }
  - { offsetInCU: 0xF46E, offset: 0xF46E, size: 0x8, addend: 0x0, symName: __ZNSt3__18ios_base8setstateB7v160006Ej, symObjAddr: 0x388C, symBinAddr: 0x100005E40, symSize: 0x34 }
  - { offsetInCU: 0xF4A5, offset: 0xF4A5, size: 0x8, addend: 0x0, symName: __ZNSt3__13mapIiiNS_4lessIiEENS_9allocatorINS_4pairIKiiEEEEEC1B7v160006Ev, symObjAddr: 0x38E4, symBinAddr: 0x100005E98, symSize: 0x2C }
  - { offsetInCU: 0xF4CF, offset: 0xF4CF, size: 0x8, addend: 0x0, symName: __ZNSt3__13mapIiiNS_4lessIiEENS_9allocatorINS_4pairIKiiEEEEEixERS5_, symObjAddr: 0x3910, symBinAddr: 0x100005EC4, symSize: 0x80 }
  - { offsetInCU: 0xF506, offset: 0xF506, size: 0x8, addend: 0x0, symName: __ZNSt3__13mapIiiNS_4lessIiEENS_9allocatorINS_4pairIKiiEEEEE5beginB7v160006Ev, symObjAddr: 0x3990, symBinAddr: 0x100005F44, symSize: 0x38 }
  - { offsetInCU: 0xF52C, offset: 0xF52C, size: 0x8, addend: 0x0, symName: __ZNSt3__13mapIiiNS_4lessIiEENS_9allocatorINS_4pairIKiiEEEEE3endB7v160006Ev, symObjAddr: 0x39C8, symBinAddr: 0x100005F7C, symSize: 0x38 }
  - { offsetInCU: 0xF552, offset: 0xF552, size: 0x8, addend: 0x0, symName: __ZNKSt3__114__map_iteratorINS_15__tree_iteratorINS_12__value_typeIiiEEPNS_11__tree_nodeIS3_PvEElEEEdeB7v160006Ev, symObjAddr: 0x3A30, symBinAddr: 0x100005FE4, symSize: 0x28 }
  - { offsetInCU: 0xF578, offset: 0xF578, size: 0x8, addend: 0x0, symName: __ZNSt3__114__map_iteratorINS_15__tree_iteratorINS_12__value_typeIiiEEPNS_11__tree_nodeIS3_PvEElEEEppB7v160006Ev, symObjAddr: 0x3A58, symBinAddr: 0x10000600C, symSize: 0x2C }
  - { offsetInCU: 0xF59E, offset: 0xF59E, size: 0x8, addend: 0x0, symName: __ZNSt3__13mapIiiNS_4lessIiEENS_9allocatorINS_4pairIKiiEEEEED1B7v160006Ev, symObjAddr: 0x3A84, symBinAddr: 0x100006038, symSize: 0x2C }
  - { offsetInCU: 0xF5C8, offset: 0xF5C8, size: 0x8, addend: 0x0, symName: __ZNSt3__13mapIiiNS_4lessIiEENS_9allocatorINS_4pairIKiiEEEEEC2B7v160006Ev, symObjAddr: 0x3AB0, symBinAddr: 0x100006064, symSize: 0x40 }
  - { offsetInCU: 0xF5F2, offset: 0xF5F2, size: 0x8, addend: 0x0, symName: __ZNSt3__119__map_value_compareIiNS_12__value_typeIiiEENS_4lessIiEELb1EEC1B7v160006ES4_, symObjAddr: 0x3AF0, symBinAddr: 0x1000060A4, symSize: 0x2C }
  - { offsetInCU: 0xF62B, offset: 0xF62B, size: 0x8, addend: 0x0, symName: __ZNSt3__16__treeINS_12__value_typeIiiEENS_19__map_value_compareIiS2_NS_4lessIiEELb1EEENS_9allocatorIS2_EEEC1ERKS6_, symObjAddr: 0x3B1C, symBinAddr: 0x1000060D0, symSize: 0x34 }
  - { offsetInCU: 0xF666, offset: 0xF666, size: 0x8, addend: 0x0, symName: __ZNSt3__119__map_value_compareIiNS_12__value_typeIiiEENS_4lessIiEELb1EEC2B7v160006ES4_, symObjAddr: 0x3B50, symBinAddr: 0x100006104, symSize: 0x14 }
  - { offsetInCU: 0xF69F, offset: 0xF69F, size: 0x8, addend: 0x0, symName: __ZNSt3__16__treeINS_12__value_typeIiiEENS_19__map_value_compareIiS2_NS_4lessIiEELb1EEENS_9allocatorIS2_EEEC2ERKS6_, symObjAddr: 0x3B64, symBinAddr: 0x100006118, symSize: 0x7C }
  - { offsetInCU: 0xF6DA, offset: 0xF6DA, size: 0x8, addend: 0x0, symName: __ZNSt3__117__compressed_pairINS_15__tree_end_nodeIPNS_16__tree_node_baseIPvEEEENS_9allocatorINS_11__tree_nodeINS_12__value_typeIiiEES3_EEEEEC1B7v160006ILb1EvEEv, symObjAddr: 0x3BE0, symBinAddr: 0x100006194, symSize: 0x2C }
  - { offsetInCU: 0xF70F, offset: 0xF70F, size: 0x8, addend: 0x0, symName: __ZNSt3__117__compressed_pairImNS_19__map_value_compareIiNS_12__value_typeIiiEENS_4lessIiEELb1EEEEC1B7v160006IiRKS6_EEOT_OT0_, symObjAddr: 0x3C0C, symBinAddr: 0x1000061C0, symSize: 0x3C }
  - { offsetInCU: 0xF767, offset: 0xF767, size: 0x8, addend: 0x0, symName: __ZNSt3__16__treeINS_12__value_typeIiiEENS_19__map_value_compareIiS2_NS_4lessIiEELb1EEENS_9allocatorIS2_EEE10__end_nodeB7v160006Ev, symObjAddr: 0x3C48, symBinAddr: 0x1000061FC, symSize: 0x2C }
  - { offsetInCU: 0xF78D, offset: 0xF78D, size: 0x8, addend: 0x0, symName: __ZNSt3__16__treeINS_12__value_typeIiiEENS_19__map_value_compareIiS2_NS_4lessIiEELb1EEENS_9allocatorIS2_EEE12__begin_nodeB7v160006Ev, symObjAddr: 0x3C74, symBinAddr: 0x100006228, symSize: 0x14 }
  - { offsetInCU: 0xF7B3, offset: 0xF7B3, size: 0x8, addend: 0x0, symName: __ZNSt3__117__compressed_pairINS_15__tree_end_nodeIPNS_16__tree_node_baseIPvEEEENS_9allocatorINS_11__tree_nodeINS_12__value_typeIiiEES3_EEEEEC2B7v160006ILb1EvEEv, symObjAddr: 0x3C88, symBinAddr: 0x10000623C, symSize: 0x34 }
  - { offsetInCU: 0xF7E8, offset: 0xF7E8, size: 0x8, addend: 0x0, symName: __ZNSt3__122__compressed_pair_elemINS_9allocatorINS_11__tree_nodeINS_12__value_typeIiiEEPvEEEELi1ELb1EEC2B7v160006ENS_16__value_init_tagE, symObjAddr: 0x3CBC, symBinAddr: 0x100006270, symSize: 0x2C }
  - { offsetInCU: 0xF81C, offset: 0xF81C, size: 0x8, addend: 0x0, symName: __ZNSt3__19allocatorINS_11__tree_nodeINS_12__value_typeIiiEEPvEEEC2B7v160006Ev, symObjAddr: 0x3CE8, symBinAddr: 0x10000629C, symSize: 0x2C }
  - { offsetInCU: 0xF846, offset: 0xF846, size: 0x8, addend: 0x0, symName: __ZNSt3__116__non_trivial_ifILb1ENS_9allocatorINS_11__tree_nodeINS_12__value_typeIiiEEPvEEEEEC2B7v160006Ev, symObjAddr: 0x3D14, symBinAddr: 0x1000062C8, symSize: 0x14 }
  - { offsetInCU: 0xF870, offset: 0xF870, size: 0x8, addend: 0x0, symName: __ZNSt3__117__compressed_pairImNS_19__map_value_compareIiNS_12__value_typeIiiEENS_4lessIiEELb1EEEEC2B7v160006IiRKS6_EEOT_OT0_, symObjAddr: 0x3D28, symBinAddr: 0x1000062DC, symSize: 0x44 }
  - { offsetInCU: 0xF8C8, offset: 0xF8C8, size: 0x8, addend: 0x0, symName: __ZNSt3__122__compressed_pair_elemINS_19__map_value_compareIiNS_12__value_typeIiiEENS_4lessIiEELb1EEELi1ELb1EEC2B7v160006IRKS6_vEEOT_, symObjAddr: 0x3D6C, symBinAddr: 0x100006320, symSize: 0x18 }
  - { offsetInCU: 0xF90A, offset: 0xF90A, size: 0x8, addend: 0x0, symName: __ZNSt3__117__compressed_pairINS_15__tree_end_nodeIPNS_16__tree_node_baseIPvEEEENS_9allocatorINS_11__tree_nodeINS_12__value_typeIiiEES3_EEEEE5firstB7v160006Ev, symObjAddr: 0x3D84, symBinAddr: 0x100006338, symSize: 0x24 }
  - { offsetInCU: 0xF944, offset: 0xF944, size: 0x8, addend: 0x0, symName: __ZNSt3__16__treeINS_12__value_typeIiiEENS_19__map_value_compareIiS2_NS_4lessIiEELb1EEENS_9allocatorIS2_EEE25__emplace_unique_key_argsIiJRKNS_21piecewise_construct_tENS_5tupleIJRKiEEENSE_IJEEEEEENS_4pairINS_15__tree_iteratorIS2_PNS_11__tree_nodeIS2_PvEElEEbEERKT_DpOT0_, symObjAddr: 0x3DA8, symBinAddr: 0x10000635C, symSize: 0x100 }
  - { offsetInCU: 0xFA1A, offset: 0xFA1A, size: 0x8, addend: 0x0, symName: __ZNKSt3__115__tree_iteratorINS_12__value_typeIiiEEPNS_11__tree_nodeIS2_PvEElEptB7v160006Ev, symObjAddr: 0x3ED8, symBinAddr: 0x10000648C, symSize: 0x2C }
  - { offsetInCU: 0xFA40, offset: 0xFA40, size: 0x8, addend: 0x0, symName: __ZNSt3__112__value_typeIiiE11__get_valueB7v160006Ev, symObjAddr: 0x3F04, symBinAddr: 0x1000064B8, symSize: 0x24 }
  - { offsetInCU: 0xFA66, offset: 0xFA66, size: 0x8, addend: 0x0, symName: __ZNSt3__16__treeINS_12__value_typeIiiEENS_19__map_value_compareIiS2_NS_4lessIiEELb1EEENS_9allocatorIS2_EEE12__find_equalIiEERPNS_16__tree_node_baseIPvEERPNS_15__tree_end_nodeISE_EERKT_, symObjAddr: 0x3F28, symBinAddr: 0x1000064DC, symSize: 0x184 }
  - { offsetInCU: 0xFAD3, offset: 0xFAD3, size: 0x8, addend: 0x0, symName: __ZNSt3__16__treeINS_12__value_typeIiiEENS_19__map_value_compareIiS2_NS_4lessIiEELb1EEENS_9allocatorIS2_EEE16__construct_nodeIJRKNS_21piecewise_construct_tENS_5tupleIJRKiEEENSE_IJEEEEEENS_10unique_ptrINS_11__tree_nodeIS2_PvEENS_22__tree_node_destructorINS7_ISM_EEEEEEDpOT_, symObjAddr: 0x40AC, symBinAddr: 0x100006660, symSize: 0x120 }
  - { offsetInCU: 0xFB5C, offset: 0xFB5C, size: 0x8, addend: 0x0, symName: __ZNSt3__16__treeINS_12__value_typeIiiEENS_19__map_value_compareIiS2_NS_4lessIiEELb1EEENS_9allocatorIS2_EEE16__insert_node_atEPNS_15__tree_end_nodeIPNS_16__tree_node_baseIPvEEEERSE_SE_, symObjAddr: 0x41CC, symBinAddr: 0x100006780, symSize: 0xCC }
  - { offsetInCU: 0xFBB1, offset: 0xFBB1, size: 0x8, addend: 0x0, symName: __ZNKSt3__110unique_ptrINS_11__tree_nodeINS_12__value_typeIiiEEPvEENS_22__tree_node_destructorINS_9allocatorIS5_EEEEE3getB7v160006Ev, symObjAddr: 0x4298, symBinAddr: 0x10000684C, symSize: 0x28 }
  - { offsetInCU: 0xFBD7, offset: 0xFBD7, size: 0x8, addend: 0x0, symName: __ZNSt3__110unique_ptrINS_11__tree_nodeINS_12__value_typeIiiEEPvEENS_22__tree_node_destructorINS_9allocatorIS5_EEEEE7releaseB7v160006Ev, symObjAddr: 0x42C0, symBinAddr: 0x100006874, symSize: 0x44 }
  - { offsetInCU: 0xFC0C, offset: 0xFC0C, size: 0x8, addend: 0x0, symName: __ZNSt3__110unique_ptrINS_11__tree_nodeINS_12__value_typeIiiEEPvEENS_22__tree_node_destructorINS_9allocatorIS5_EEEEED1B7v160006Ev, symObjAddr: 0x4304, symBinAddr: 0x1000068B8, symSize: 0x2C }
  - { offsetInCU: 0xFC36, offset: 0xFC36, size: 0x8, addend: 0x0, symName: __ZNSt3__115__tree_iteratorINS_12__value_typeIiiEEPNS_11__tree_nodeIS2_PvEElEC1B7v160006ES6_, symObjAddr: 0x4330, symBinAddr: 0x1000068E4, symSize: 0x34 }
  - { offsetInCU: 0xFC74, offset: 0xFC74, size: 0x8, addend: 0x0, symName: __ZNSt3__14pairINS_15__tree_iteratorINS_12__value_typeIiiEEPNS_11__tree_nodeIS3_PvEElEEbEC1B7v160006IS8_RbLS5_0EEEOT_OT0_, symObjAddr: 0x4364, symBinAddr: 0x100006918, symSize: 0x3C }
  - { offsetInCU: 0xFCD2, offset: 0xFCD2, size: 0x8, addend: 0x0, symName: __ZNKSt3__16__treeINS_12__value_typeIiiEENS_19__map_value_compareIiS2_NS_4lessIiEELb1EEENS_9allocatorIS2_EEE6__rootB7v160006Ev, symObjAddr: 0x43A0, symBinAddr: 0x100006954, symSize: 0x28 }
  - { offsetInCU: 0xFCF8, offset: 0xFCF8, size: 0x8, addend: 0x0, symName: __ZNKSt3__16__treeINS_12__value_typeIiiEENS_19__map_value_compareIiS2_NS_4lessIiEELb1EEENS_9allocatorIS2_EEE10__root_ptrEv, symObjAddr: 0x43C8, symBinAddr: 0x10000697C, symSize: 0x24 }
  - { offsetInCU: 0xFD1E, offset: 0xFD1E, size: 0x8, addend: 0x0, symName: __ZNSt3__16__treeINS_12__value_typeIiiEENS_19__map_value_compareIiS2_NS_4lessIiEELb1EEENS_9allocatorIS2_EEE10value_compB7v160006Ev, symObjAddr: 0x43EC, symBinAddr: 0x1000069A0, symSize: 0x28 }
  - { offsetInCU: 0xFD44, offset: 0xFD44, size: 0x8, addend: 0x0, symName: __ZNKSt3__119__map_value_compareIiNS_12__value_typeIiiEENS_4lessIiEELb1EEclB7v160006ERKiRKS2_, symObjAddr: 0x4414, symBinAddr: 0x1000069C8, symSize: 0x50 }
  - { offsetInCU: 0xFD88, offset: 0xFD88, size: 0x8, addend: 0x0, symName: __ZNKSt3__119__map_value_compareIiNS_12__value_typeIiiEENS_4lessIiEELb1EEclB7v160006ERKS2_RKi, symObjAddr: 0x4464, symBinAddr: 0x100006A18, symSize: 0x48 }
  - { offsetInCU: 0xFDCC, offset: 0xFDCC, size: 0x8, addend: 0x0, symName: __ZNKSt3__16__treeINS_12__value_typeIiiEENS_19__map_value_compareIiS2_NS_4lessIiEELb1EEENS_9allocatorIS2_EEE10__end_nodeB7v160006Ev, symObjAddr: 0x44AC, symBinAddr: 0x100006A60, symSize: 0x2C }
  - { offsetInCU: 0xFDF2, offset: 0xFDF2, size: 0x8, addend: 0x0, symName: __ZNKSt3__117__compressed_pairINS_15__tree_end_nodeIPNS_16__tree_node_baseIPvEEEENS_9allocatorINS_11__tree_nodeINS_12__value_typeIiiEES3_EEEEE5firstB7v160006Ev, symObjAddr: 0x44D8, symBinAddr: 0x100006A8C, symSize: 0x24 }
  - { offsetInCU: 0xFE18, offset: 0xFE18, size: 0x8, addend: 0x0, symName: __ZNSt3__117__compressed_pairImNS_19__map_value_compareIiNS_12__value_typeIiiEENS_4lessIiEELb1EEEE6secondB7v160006Ev, symObjAddr: 0x44FC, symBinAddr: 0x100006AB0, symSize: 0x24 }
  - { offsetInCU: 0xFE3E, offset: 0xFE3E, size: 0x8, addend: 0x0, symName: __ZNSt3__122__compressed_pair_elemINS_19__map_value_compareIiNS_12__value_typeIiiEENS_4lessIiEELb1EEELi1ELb1EE5__getB7v160006Ev, symObjAddr: 0x4520, symBinAddr: 0x100006AD4, symSize: 0x14 }
  - { offsetInCU: 0xFE64, offset: 0xFE64, size: 0x8, addend: 0x0, symName: __ZNKSt3__112__value_typeIiiE11__get_valueB7v160006Ev, symObjAddr: 0x4534, symBinAddr: 0x100006AE8, symSize: 0x24 }
  - { offsetInCU: 0xFE8A, offset: 0xFE8A, size: 0x8, addend: 0x0, symName: __ZNSt3__16__treeINS_12__value_typeIiiEENS_19__map_value_compareIiS2_NS_4lessIiEELb1EEENS_9allocatorIS2_EEE12__node_allocB7v160006Ev, symObjAddr: 0x4590, symBinAddr: 0x100006B44, symSize: 0x28 }
  - { offsetInCU: 0xFEB0, offset: 0xFEB0, size: 0x8, addend: 0x0, symName: __ZNSt3__116allocator_traitsINS_9allocatorINS_11__tree_nodeINS_12__value_typeIiiEEPvEEEEE8allocateB7v160006ERS7_m, symObjAddr: 0x45B8, symBinAddr: 0x100006B6C, symSize: 0x2C }
  - { offsetInCU: 0xFEE3, offset: 0xFEE3, size: 0x8, addend: 0x0, symName: __ZNSt3__122__tree_node_destructorINS_9allocatorINS_11__tree_nodeINS_12__value_typeIiiEEPvEEEEEC1B7v160006ERS7_b, symObjAddr: 0x45E4, symBinAddr: 0x100006B98, symSize: 0x48 }
  - { offsetInCU: 0xFF30, offset: 0xFF30, size: 0x8, addend: 0x0, symName: __ZNSt3__110unique_ptrINS_11__tree_nodeINS_12__value_typeIiiEEPvEENS_22__tree_node_destructorINS_9allocatorIS5_EEEEEC1B7v160006ILb1EvEEPS5_NS_16__dependent_typeINS_27__unique_ptr_deleter_sfinaeIS9_EEXT_EE20__good_rval_ref_typeE, symObjAddr: 0x462C, symBinAddr: 0x100006BE0, symSize: 0x3C }
  - { offsetInCU: 0xFF81, offset: 0xFF81, size: 0x8, addend: 0x0, symName: __ZNSt3__116allocator_traitsINS_9allocatorINS_11__tree_nodeINS_12__value_typeIiiEEPvEEEEE9constructB7v160006INS_4pairIKiiEEJRKNS_21piecewise_construct_tENS_5tupleIJRSB_EEENSG_IJEEEEvEEvRS7_PT_DpOT0_, symObjAddr: 0x4668, symBinAddr: 0x100006C1C, symSize: 0x44 }
  - { offsetInCU: 0x10000, offset: 0x10000, size: 0x8, addend: 0x0, symName: __ZNSt3__122__tree_key_value_typesINS_12__value_typeIiiEEE9__get_ptrB7v160006ERS2_, symObjAddr: 0x46AC, symBinAddr: 0x100006C60, symSize: 0x24 }
  - { offsetInCU: 0x10024, offset: 0x10024, size: 0x8, addend: 0x0, symName: __ZNKSt3__110unique_ptrINS_11__tree_nodeINS_12__value_typeIiiEEPvEENS_22__tree_node_destructorINS_9allocatorIS5_EEEEEptB7v160006Ev, symObjAddr: 0x46D0, symBinAddr: 0x100006C84, symSize: 0x28 }
  - { offsetInCU: 0x1004A, offset: 0x1004A, size: 0x8, addend: 0x0, symName: __ZNSt3__110unique_ptrINS_11__tree_nodeINS_12__value_typeIiiEEPvEENS_22__tree_node_destructorINS_9allocatorIS5_EEEEE11get_deleterB7v160006Ev, symObjAddr: 0x46F8, symBinAddr: 0x100006CAC, symSize: 0x24 }
  - { offsetInCU: 0x10070, offset: 0x10070, size: 0x8, addend: 0x0, symName: __ZNSt3__117__compressed_pairINS_15__tree_end_nodeIPNS_16__tree_node_baseIPvEEEENS_9allocatorINS_11__tree_nodeINS_12__value_typeIiiEES3_EEEEE6secondB7v160006Ev, symObjAddr: 0x471C, symBinAddr: 0x100006CD0, symSize: 0x24 }
  - { offsetInCU: 0x10096, offset: 0x10096, size: 0x8, addend: 0x0, symName: __ZNSt3__122__compressed_pair_elemINS_9allocatorINS_11__tree_nodeINS_12__value_typeIiiEEPvEEEELi1ELb1EE5__getB7v160006Ev, symObjAddr: 0x4740, symBinAddr: 0x100006CF4, symSize: 0x14 }
  - { offsetInCU: 0x100BC, offset: 0x100BC, size: 0x8, addend: 0x0, symName: __ZNSt3__19allocatorINS_11__tree_nodeINS_12__value_typeIiiEEPvEEE8allocateB7v160006Em, symObjAddr: 0x4754, symBinAddr: 0x100006D08, symSize: 0x5C }
  - { offsetInCU: 0x100FA, offset: 0x100FA, size: 0x8, addend: 0x0, symName: __ZNSt3__116allocator_traitsINS_9allocatorINS_11__tree_nodeINS_12__value_typeIiiEEPvEEEEE8max_sizeB7v160006IS7_vEEmRKS7_, symObjAddr: 0x47B0, symBinAddr: 0x100006D64, symSize: 0x24 }
  - { offsetInCU: 0x10128, offset: 0x10128, size: 0x8, addend: 0x0, symName: __ZNKSt3__19allocatorINS_11__tree_nodeINS_12__value_typeIiiEEPvEEE8max_sizeB7v160006Ev, symObjAddr: 0x47D4, symBinAddr: 0x100006D88, symSize: 0x18 }
  - { offsetInCU: 0x1014E, offset: 0x1014E, size: 0x8, addend: 0x0, symName: __ZNSt3__122__tree_node_destructorINS_9allocatorINS_11__tree_nodeINS_12__value_typeIiiEEPvEEEEEC2B7v160006ERS7_b, symObjAddr: 0x47EC, symBinAddr: 0x100006DA0, symSize: 0x38 }
  - { offsetInCU: 0x10196, offset: 0x10196, size: 0x8, addend: 0x0, symName: __ZNSt3__110unique_ptrINS_11__tree_nodeINS_12__value_typeIiiEEPvEENS_22__tree_node_destructorINS_9allocatorIS5_EEEEEC2B7v160006ILb1EvEEPS5_NS_16__dependent_typeINS_27__unique_ptr_deleter_sfinaeIS9_EEXT_EE20__good_rval_ref_typeE, symObjAddr: 0x4824, symBinAddr: 0x100006DD8, symSize: 0x48 }
  - { offsetInCU: 0x101E7, offset: 0x101E7, size: 0x8, addend: 0x0, symName: __ZNSt3__117__compressed_pairIPNS_11__tree_nodeINS_12__value_typeIiiEEPvEENS_22__tree_node_destructorINS_9allocatorIS5_EEEEEC1B7v160006IRS6_SA_EEOT_OT0_, symObjAddr: 0x486C, symBinAddr: 0x100006E20, symSize: 0x3C }
  - { offsetInCU: 0x1023F, offset: 0x1023F, size: 0x8, addend: 0x0, symName: __ZNSt3__117__compressed_pairIPNS_11__tree_nodeINS_12__value_typeIiiEEPvEENS_22__tree_node_destructorINS_9allocatorIS5_EEEEEC2B7v160006IRS6_SA_EEOT_OT0_, symObjAddr: 0x48A8, symBinAddr: 0x100006E5C, symSize: 0x48 }
  - { offsetInCU: 0x10297, offset: 0x10297, size: 0x8, addend: 0x0, symName: __ZNSt3__122__compressed_pair_elemIPNS_11__tree_nodeINS_12__value_typeIiiEEPvEELi0ELb0EEC2B7v160006IRS6_vEEOT_, symObjAddr: 0x48F0, symBinAddr: 0x100006EA4, symSize: 0x24 }
  - { offsetInCU: 0x102D9, offset: 0x102D9, size: 0x8, addend: 0x0, symName: __ZNSt3__122__compressed_pair_elemINS_22__tree_node_destructorINS_9allocatorINS_11__tree_nodeINS_12__value_typeIiiEEPvEEEEEELi1ELb0EEC2B7v160006IS9_vEEOT_, symObjAddr: 0x4914, symBinAddr: 0x100006EC8, symSize: 0x24 }
  - { offsetInCU: 0x1031B, offset: 0x1031B, size: 0x8, addend: 0x0, symName: __ZNSt3__19allocatorINS_11__tree_nodeINS_12__value_typeIiiEEPvEEE9constructB7v160006INS_4pairIKiiEEJRKNS_21piecewise_construct_tENS_5tupleIJRS9_EEENSE_IJEEEEEEvPT_DpOT0_, symObjAddr: 0x4938, symBinAddr: 0x100006EEC, symSize: 0x44 }
  - { offsetInCU: 0x10397, offset: 0x10397, size: 0x8, addend: 0x0, symName: __ZNSt3__14pairIKiiEC1B7v160006IJRS1_EJEEENS_21piecewise_construct_tENS_5tupleIJDpT_EEENS6_IJDpT0_EEE, symObjAddr: 0x497C, symBinAddr: 0x100006F30, symSize: 0x44 }
  - { offsetInCU: 0x103FE, offset: 0x103FE, size: 0x8, addend: 0x0, symName: __ZNSt3__14pairIKiiEC1B7v160006IJRS1_EJEJLm0EEJEEENS_21piecewise_construct_tERNS_5tupleIJDpT_EEERNS6_IJDpT0_EEENS_15__tuple_indicesIJXspT1_EEEENSF_IJXspT2_EEEE, symObjAddr: 0x49C0, symBinAddr: 0x100006F74, symSize: 0x3C }
  - { offsetInCU: 0x1048E, offset: 0x1048E, size: 0x8, addend: 0x0, symName: __ZNSt3__14pairIKiiEC2B7v160006IJRS1_EJEJLm0EEJEEENS_21piecewise_construct_tERNS_5tupleIJDpT_EEERNS6_IJDpT0_EEENS_15__tuple_indicesIJXspT1_EEEENSF_IJXspT2_EEEE, symObjAddr: 0x49FC, symBinAddr: 0x100006FB0, symSize: 0x48 }
  - { offsetInCU: 0x1051E, offset: 0x1051E, size: 0x8, addend: 0x0, symName: __ZNSt3__112__tuple_leafILm0ERKiLb0EE3getB7v160006Ev, symObjAddr: 0x4A68, symBinAddr: 0x10000701C, symSize: 0x18 }
  - { offsetInCU: 0x10544, offset: 0x10544, size: 0x8, addend: 0x0, symName: __ZNKSt3__117__compressed_pairIPNS_11__tree_nodeINS_12__value_typeIiiEEPvEENS_22__tree_node_destructorINS_9allocatorIS5_EEEEE5firstB7v160006Ev, symObjAddr: 0x4A80, symBinAddr: 0x100007034, symSize: 0x24 }
  - { offsetInCU: 0x1056A, offset: 0x1056A, size: 0x8, addend: 0x0, symName: __ZNKSt3__122__compressed_pair_elemIPNS_11__tree_nodeINS_12__value_typeIiiEEPvEELi0ELb0EE5__getB7v160006Ev, symObjAddr: 0x4AA4, symBinAddr: 0x100007058, symSize: 0x14 }
  - { offsetInCU: 0x10590, offset: 0x10590, size: 0x8, addend: 0x0, symName: __ZNSt3__117__compressed_pairIPNS_11__tree_nodeINS_12__value_typeIiiEEPvEENS_22__tree_node_destructorINS_9allocatorIS5_EEEEE6secondB7v160006Ev, symObjAddr: 0x4AB8, symBinAddr: 0x10000706C, symSize: 0x28 }
  - { offsetInCU: 0x105B6, offset: 0x105B6, size: 0x8, addend: 0x0, symName: __ZNSt3__122__compressed_pair_elemINS_22__tree_node_destructorINS_9allocatorINS_11__tree_nodeINS_12__value_typeIiiEEPvEEEEEELi1ELb0EE5__getB7v160006Ev, symObjAddr: 0x4AE0, symBinAddr: 0x100007094, symSize: 0x14 }
  - { offsetInCU: 0x105DC, offset: 0x105DC, size: 0x8, addend: 0x0, symName: __ZNSt3__16__treeINS_12__value_typeIiiEENS_19__map_value_compareIiS2_NS_4lessIiEELb1EEENS_9allocatorIS2_EEE4sizeB7v160006Ev, symObjAddr: 0x4AF4, symBinAddr: 0x1000070A8, symSize: 0x28 }
  - { offsetInCU: 0x10602, offset: 0x10602, size: 0x8, addend: 0x0, symName: __ZNSt3__117__compressed_pairImNS_19__map_value_compareIiNS_12__value_typeIiiEENS_4lessIiEELb1EEEE5firstB7v160006Ev, symObjAddr: 0x4B1C, symBinAddr: 0x1000070D0, symSize: 0x24 }
  - { offsetInCU: 0x10628, offset: 0x10628, size: 0x8, addend: 0x0, symName: __ZNSt3__117__compressed_pairIPNS_11__tree_nodeINS_12__value_typeIiiEEPvEENS_22__tree_node_destructorINS_9allocatorIS5_EEEEE5firstB7v160006Ev, symObjAddr: 0x4B40, symBinAddr: 0x1000070F4, symSize: 0x24 }
  - { offsetInCU: 0x1064E, offset: 0x1064E, size: 0x8, addend: 0x0, symName: __ZNSt3__122__compressed_pair_elemIPNS_11__tree_nodeINS_12__value_typeIiiEEPvEELi0ELb0EE5__getB7v160006Ev, symObjAddr: 0x4B64, symBinAddr: 0x100007118, symSize: 0x14 }
  - { offsetInCU: 0x10674, offset: 0x10674, size: 0x8, addend: 0x0, symName: __ZNSt3__110unique_ptrINS_11__tree_nodeINS_12__value_typeIiiEEPvEENS_22__tree_node_destructorINS_9allocatorIS5_EEEEED2B7v160006Ev, symObjAddr: 0x4B78, symBinAddr: 0x10000712C, symSize: 0x30 }
  - { offsetInCU: 0x1069E, offset: 0x1069E, size: 0x8, addend: 0x0, symName: __ZNSt3__110unique_ptrINS_11__tree_nodeINS_12__value_typeIiiEEPvEENS_22__tree_node_destructorINS_9allocatorIS5_EEEEE5resetB7v160006EPS5_, symObjAddr: 0x4BA8, symBinAddr: 0x10000715C, symSize: 0x78 }
  - { offsetInCU: 0x106E2, offset: 0x106E2, size: 0x8, addend: 0x0, symName: __ZNSt3__122__tree_node_destructorINS_9allocatorINS_11__tree_nodeINS_12__value_typeIiiEEPvEEEEEclB7v160006EPS6_, symObjAddr: 0x4C20, symBinAddr: 0x1000071D4, symSize: 0x98 }
  - { offsetInCU: 0x10717, offset: 0x10717, size: 0x8, addend: 0x0, symName: __ZNSt3__116allocator_traitsINS_9allocatorINS_11__tree_nodeINS_12__value_typeIiiEEPvEEEEE7destroyB7v160006INS_4pairIKiiEEvvEEvRS7_PT_, symObjAddr: 0x4CB8, symBinAddr: 0x10000726C, symSize: 0x14 }
  - { offsetInCU: 0x10752, offset: 0x10752, size: 0x8, addend: 0x0, symName: __ZNSt3__116allocator_traitsINS_9allocatorINS_11__tree_nodeINS_12__value_typeIiiEEPvEEEEE10deallocateB7v160006ERS7_PS6_m, symObjAddr: 0x4CCC, symBinAddr: 0x100007280, symSize: 0x34 }
  - { offsetInCU: 0x10794, offset: 0x10794, size: 0x8, addend: 0x0, symName: __ZNSt3__19allocatorINS_11__tree_nodeINS_12__value_typeIiiEEPvEEE10deallocateB7v160006EPS5_m, symObjAddr: 0x4D00, symBinAddr: 0x1000072B4, symSize: 0x44 }
  - { offsetInCU: 0x107D6, offset: 0x107D6, size: 0x8, addend: 0x0, symName: __ZNSt3__115__tree_iteratorINS_12__value_typeIiiEEPNS_11__tree_nodeIS2_PvEElEC2B7v160006ES6_, symObjAddr: 0x4D44, symBinAddr: 0x1000072F8, symSize: 0x20 }
  - { offsetInCU: 0x1080F, offset: 0x1080F, size: 0x8, addend: 0x0, symName: __ZNSt3__14pairINS_15__tree_iteratorINS_12__value_typeIiiEEPNS_11__tree_nodeIS3_PvEElEEbEC2B7v160006IS8_RbLS5_0EEEOT_OT0_, symObjAddr: 0x4D64, symBinAddr: 0x100007318, symSize: 0x38 }
  - { offsetInCU: 0x1086D, offset: 0x1086D, size: 0x8, addend: 0x0, symName: __ZNSt3__15tupleIJRKiEEC1B7v160006INS_4_AndELi0EEES2_, symObjAddr: 0x4D9C, symBinAddr: 0x100007350, symSize: 0x34 }
  - { offsetInCU: 0x108B5, offset: 0x108B5, size: 0x8, addend: 0x0, symName: __ZNSt3__15tupleIJRKiEEC2B7v160006INS_4_AndELi0EEES2_, symObjAddr: 0x4DD0, symBinAddr: 0x100007384, symSize: 0x34 }
  - { offsetInCU: 0x108FD, offset: 0x108FD, size: 0x8, addend: 0x0, symName: __ZNSt3__112__tuple_implINS_15__tuple_indicesIJLm0EEEEJRKiEEC1B7v160006IJLm0EEJS4_EJEJEJS4_EEENS1_IJXspT_EEEENS_13__tuple_typesIJDpT0_EEENS1_IJXspT1_EEEENS8_IJDpT2_EEEDpOT3_, symObjAddr: 0x4E04, symBinAddr: 0x1000073B8, symSize: 0x34 }
  - { offsetInCU: 0x10992, offset: 0x10992, size: 0x8, addend: 0x0, symName: __ZNSt3__112__tuple_implINS_15__tuple_indicesIJLm0EEEEJRKiEEC2B7v160006IJLm0EEJS4_EJEJEJS4_EEENS1_IJXspT_EEEENS_13__tuple_typesIJDpT0_EEENS1_IJXspT1_EEEENS8_IJDpT2_EEEDpOT3_, symObjAddr: 0x4E38, symBinAddr: 0x1000073EC, symSize: 0x34 }
  - { offsetInCU: 0x10A27, offset: 0x10A27, size: 0x8, addend: 0x0, symName: __ZNSt3__112__tuple_leafILm0ERKiLb0EEC2B7v160006IS2_vEEOT_, symObjAddr: 0x4E6C, symBinAddr: 0x100007420, symSize: 0x20 }
  - { offsetInCU: 0x10A6A, offset: 0x10A6A, size: 0x8, addend: 0x0, symName: __ZNSt3__114pointer_traitsIPNS_12__value_typeIiiEEE10pointer_toB7v160006ERS2_, symObjAddr: 0x4E8C, symBinAddr: 0x100007440, symSize: 0x14 }
  - { offsetInCU: 0x10A8D, offset: 0x10A8D, size: 0x8, addend: 0x0, symName: __ZNKSt3__115__tree_iteratorINS_12__value_typeIiiEEPNS_11__tree_nodeIS2_PvEElE8__get_npB7v160006Ev, symObjAddr: 0x4EA0, symBinAddr: 0x100007454, symSize: 0x18 }
  - { offsetInCU: 0x10AB3, offset: 0x10AB3, size: 0x8, addend: 0x0, symName: __ZNSt3__16__treeINS_12__value_typeIiiEENS_19__map_value_compareIiS2_NS_4lessIiEELb1EEENS_9allocatorIS2_EEE5beginB7v160006Ev, symObjAddr: 0x4EF0, symBinAddr: 0x1000074A4, symSize: 0x34 }
  - { offsetInCU: 0x10AD9, offset: 0x10AD9, size: 0x8, addend: 0x0, symName: __ZNSt3__114__map_iteratorINS_15__tree_iteratorINS_12__value_typeIiiEEPNS_11__tree_nodeIS3_PvEElEEEC1B7v160006ES8_, symObjAddr: 0x4F24, symBinAddr: 0x1000074D8, symSize: 0x34 }
  - { offsetInCU: 0x10B12, offset: 0x10B12, size: 0x8, addend: 0x0, symName: __ZNSt3__115__tree_iteratorINS_12__value_typeIiiEEPNS_11__tree_nodeIS2_PvEElEC1B7v160006EPNS_15__tree_end_nodeIPNS_16__tree_node_baseIS4_EEEE, symObjAddr: 0x4F58, symBinAddr: 0x10000750C, symSize: 0x34 }
  - { offsetInCU: 0x10B4B, offset: 0x10B4B, size: 0x8, addend: 0x0, symName: __ZNSt3__115__tree_iteratorINS_12__value_typeIiiEEPNS_11__tree_nodeIS2_PvEElEC2B7v160006EPNS_15__tree_end_nodeIPNS_16__tree_node_baseIS4_EEEE, symObjAddr: 0x4F8C, symBinAddr: 0x100007540, symSize: 0x20 }
  - { offsetInCU: 0x10B84, offset: 0x10B84, size: 0x8, addend: 0x0, symName: __ZNSt3__114__map_iteratorINS_15__tree_iteratorINS_12__value_typeIiiEEPNS_11__tree_nodeIS3_PvEElEEEC2B7v160006ES8_, symObjAddr: 0x4FAC, symBinAddr: 0x100007560, symSize: 0x20 }
  - { offsetInCU: 0x10BBD, offset: 0x10BBD, size: 0x8, addend: 0x0, symName: __ZNSt3__16__treeINS_12__value_typeIiiEENS_19__map_value_compareIiS2_NS_4lessIiEELb1EEENS_9allocatorIS2_EEE3endB7v160006Ev, symObjAddr: 0x4FCC, symBinAddr: 0x100007580, symSize: 0x34 }
  - { offsetInCU: 0x10BE3, offset: 0x10BE3, size: 0x8, addend: 0x0, symName: __ZNSt3__115__tree_iteratorINS_12__value_typeIiiEEPNS_11__tree_nodeIS2_PvEElEppB7v160006Ev, symObjAddr: 0x5064, symBinAddr: 0x100007618, symSize: 0x38 }
  - { offsetInCU: 0x10C09, offset: 0x10C09, size: 0x8, addend: 0x0, symName: __ZNSt3__13mapIiiNS_4lessIiEENS_9allocatorINS_4pairIKiiEEEEED2B7v160006Ev, symObjAddr: 0x509C, symBinAddr: 0x100007650, symSize: 0x2C }
  - { offsetInCU: 0x10C33, offset: 0x10C33, size: 0x8, addend: 0x0, symName: __ZNSt3__16__treeINS_12__value_typeIiiEENS_19__map_value_compareIiS2_NS_4lessIiEELb1EEENS_9allocatorIS2_EEED1Ev, symObjAddr: 0x50C8, symBinAddr: 0x10000767C, symSize: 0x2C }
  - { offsetInCU: 0x10C5F, offset: 0x10C5F, size: 0x8, addend: 0x0, symName: __ZNSt3__16__treeINS_12__value_typeIiiEENS_19__map_value_compareIiS2_NS_4lessIiEELb1EEENS_9allocatorIS2_EEED2Ev, symObjAddr: 0x50F4, symBinAddr: 0x1000076A8, symSize: 0x38 }
  - { offsetInCU: 0x10C8B, offset: 0x10C8B, size: 0x8, addend: 0x0, symName: __ZNSt3__16__treeINS_12__value_typeIiiEENS_19__map_value_compareIiS2_NS_4lessIiEELb1EEENS_9allocatorIS2_EEE7destroyEPNS_11__tree_nodeIS2_PvEE, symObjAddr: 0x512C, symBinAddr: 0x1000076E0, symSize: 0xA8 }
...
