---
triple:          'arm64-apple-darwin'
binary-path:     '/Users/mac/Desktop/BarisCanCoskun/Udemy/Cpp_DSA_Leetcode/05Section16-HashTables/1-InterviewLeetCodeExercises/Ex51-ItemInCommon/main'
relocations:
  - { offsetInCU: 0x431A, offset: 0x431A, size: 0x8, addend: 0x0, symName: __ZNSt3__124__put_character_sequenceB7v160006IcNS_11char_traitsIcEEEERNS_13basic_ostreamIT_T0_EES7_PKS4_m, symObjAddr: 0x1F90, symBinAddr: 0x100003BA0, symSize: 0x1EC }
  - { offsetInCU: 0x8596, offset: 0x8596, size: 0x8, addend: 0x0, symName: __ZNSt3__1lsB7v160006INS_11char_traitsIcEEEERNS_13basic_ostreamIcT_EES6_PKc, symObjAddr: 0x238, symBinAddr: 0x100001E48, symSize: 0x48 }
  - { offsetInCU: 0x85DC, offset: 0x85DC, size: 0x8, addend: 0x0, symName: __ZNSt3__19boolalphaB7v160006ERNS_8ios_baseE, symObjAddr: 0x2C0, symBinAddr: 0x100001ED0, symSize: 0x2C }
  - { offsetInCU: 0x860A, offset: 0x860A, size: 0x8, addend: 0x0, symName: __ZNSt3__14endlB7v160006IcNS_11char_traitsIcEEEERNS_13basic_ostreamIT_T0_EES7_, symObjAddr: 0x4B0, symBinAddr: 0x1000020C0, symSize: 0x58 }
  - { offsetInCU: 0x8E78, offset: 0x8E78, size: 0x8, addend: 0x0, symName: __ZNSt3__1neB7v160006IPiEEbRKNS_11__wrap_iterIT_EES6_, symObjAddr: 0x5D0, symBinAddr: 0x1000021E0, symSize: 0x34 }
  - { offsetInCU: 0x8EBB, offset: 0x8EBB, size: 0x8, addend: 0x0, symName: __ZNSt3__1neB7v160006ERKNS_21__hash_const_iteratorIPNS_11__hash_nodeIiPvEEEES7_, symObjAddr: 0x61C, symBinAddr: 0x10000222C, symSize: 0x34 }
  - { offsetInCU: 0x8EF8, offset: 0x8EF8, size: 0x8, addend: 0x0, symName: __ZNSt3__1eqB7v160006IPiEEbRKNS_11__wrap_iterIT_EES6_, symObjAddr: 0x748, symBinAddr: 0x100002358, symSize: 0x48 }
  - { offsetInCU: 0x8F3B, offset: 0x8F3B, size: 0x8, addend: 0x0, symName: __ZNSt3__122__make_exception_guardB7v160006INS_6vectorIiNS_9allocatorIiEEE16__destroy_vectorEEENS_28__exception_guard_exceptionsIT_EES7_, symObjAddr: 0x908, symBinAddr: 0x100002518, symSize: 0x40 }
  - { offsetInCU: 0x8F70, offset: 0x8F70, size: 0x8, addend: 0x0, symName: __ZNSt3__119__debug_db_insert_cB7v160006INS_6vectorIiNS_9allocatorIiEEEEEEvPT_, symObjAddr: 0x97C, symBinAddr: 0x10000258C, symSize: 0x10 }
  - { offsetInCU: 0x8FA1, offset: 0x8FA1, size: 0x8, addend: 0x0, symName: __ZNSt3__119__allocate_at_leastB7v160006INS_9allocatorIiEEEENS_19__allocation_resultINS_16allocator_traitsIT_E7pointerEEERS5_m, symObjAddr: 0xD18, symBinAddr: 0x100002928, symSize: 0x40 }
  - { offsetInCU: 0x8FE4, offset: 0x8FE4, size: 0x8, addend: 0x0, symName: __ZNSt3__13minB7v160006ImEERKT_S3_S3_, symObjAddr: 0xE54, symBinAddr: 0x100002A64, symSize: 0x2C }
  - { offsetInCU: 0x9211, offset: 0x9211, size: 0x8, addend: 0x0, symName: __ZNSt3__13minB7v160006ImNS_6__lessImmEEEERKT_S5_S5_T0_, symObjAddr: 0xEEC, symBinAddr: 0x100002AFC, symSize: 0x54 }
  - { offsetInCU: 0x92A6, offset: 0x92A6, size: 0x8, addend: 0x0, symName: __ZNSt3__120__throw_length_errorB7v160006EPKc, symObjAddr: 0xFC8, symBinAddr: 0x100002BD8, symSize: 0x64 }
  - { offsetInCU: 0x92CE, offset: 0x92CE, size: 0x8, addend: 0x0, symName: __ZNSt3__117__libcpp_allocateB7v160006Emm, symObjAddr: 0x1138, symBinAddr: 0x100002D48, symSize: 0x60 }
  - { offsetInCU: 0x9328, offset: 0x9328, size: 0x8, addend: 0x0, symName: __ZNSt3__124__is_overaligned_for_newB7v160006Em, symObjAddr: 0x1198, symBinAddr: 0x100002DA8, symSize: 0x20 }
  - { offsetInCU: 0x9356, offset: 0x9356, size: 0x8, addend: 0x0, symName: __ZNSt3__121__libcpp_operator_newB7v160006IJmSt11align_val_tEEEPvDpT_, symObjAddr: 0x11B8, symBinAddr: 0x100002DC8, symSize: 0x2C }
  - { offsetInCU: 0x93A3, offset: 0x93A3, size: 0x8, addend: 0x0, symName: __ZNSt3__121__libcpp_operator_newB7v160006IJmEEEPvDpT_, symObjAddr: 0x11E4, symBinAddr: 0x100002DF4, symSize: 0x24 }
  - { offsetInCU: 0x93DC, offset: 0x93DC, size: 0x8, addend: 0x0, symName: __ZNSt3__112__to_addressB7v160006IiEEPT_S2_, symObjAddr: 0x1300, symBinAddr: 0x100002F10, symSize: 0x14 }
  - { offsetInCU: 0x9411, offset: 0x9411, size: 0x8, addend: 0x0, symName: __ZNSt3__130__uninitialized_allocator_copyB7v160006INS_9allocatorIiEEiiLPv0EEEPT0_RT_PKS4_S9_S5_, symObjAddr: 0x13B0, symBinAddr: 0x100002FC0, symSize: 0x38 }
  - { offsetInCU: 0x9489, offset: 0x9489, size: 0x8, addend: 0x0, symName: __ZNSt3__14copyB7v160006IPKiPiEET0_T_S5_S4_, symObjAddr: 0x1458, symBinAddr: 0x100003068, symSize: 0x40 }
  - { offsetInCU: 0x94E3, offset: 0x94E3, size: 0x8, addend: 0x0, symName: __ZNSt3__16__copyB7v160006INS_17_ClassicAlgPolicyEPKiS3_PiEENS_4pairIT0_T2_EES6_T1_S7_, symObjAddr: 0x1498, symBinAddr: 0x1000030A8, symSize: 0x44 }
  - { offsetInCU: 0x954F, offset: 0x954F, size: 0x8, addend: 0x0, symName: __ZNSt3__123__dispatch_copy_or_moveB7v160006INS_17_ClassicAlgPolicyENS_11__copy_loopIS1_EENS_14__copy_trivialEPKiS6_PiEENS_4pairIT2_T4_EES9_T3_SA_, symObjAddr: 0x14DC, symBinAddr: 0x1000030EC, symSize: 0x44 }
  - { offsetInCU: 0x95CD, offset: 0x95CD, size: 0x8, addend: 0x0, symName: __ZNSt3__121__unwrap_and_dispatchB7v160006INS_10__overloadINS_11__copy_loopINS_17_ClassicAlgPolicyEEENS_14__copy_trivialEEEPKiS8_PiLi0EEENS_4pairIT0_T2_EESB_T1_SC_, symObjAddr: 0x1520, symBinAddr: 0x100003130, symSize: 0xB4 }
  - { offsetInCU: 0x965B, offset: 0x965B, size: 0x8, addend: 0x0, symName: __ZNSt3__114__unwrap_rangeB7v160006IPKiS2_EENS_4pairIT0_S4_EET_S6_, symObjAddr: 0x15D4, symBinAddr: 0x1000031E4, symSize: 0x60 }
  - { offsetInCU: 0x97F0, offset: 0x97F0, size: 0x8, addend: 0x0, symName: __ZNSt3__113__unwrap_iterB7v160006IPiNS_18__unwrap_iter_implIS1_Lb1EEELi0EEEDTclsrT0_8__unwrapclsr3stdE7declvalIT_EEEES5_, symObjAddr: 0x167C, symBinAddr: 0x10000328C, symSize: 0x24 }
  - { offsetInCU: 0x9834, offset: 0x9834, size: 0x8, addend: 0x0, symName: __ZNSt3__19make_pairB7v160006IPKiPiEENS_4pairINS_18__unwrap_ref_decayIT_E4typeENS5_IT0_E4typeEEEOS6_OS9_, symObjAddr: 0x16A0, symBinAddr: 0x1000032B0, symSize: 0x38 }
  - { offsetInCU: 0x9883, offset: 0x9883, size: 0x8, addend: 0x0, symName: __ZNSt3__114__rewrap_rangeB7v160006IPKiS2_EET_S3_T0_, symObjAddr: 0x16D8, symBinAddr: 0x1000032E8, symSize: 0x2C }
  - { offsetInCU: 0x98CF, offset: 0x98CF, size: 0x8, addend: 0x0, symName: __ZNSt3__113__rewrap_iterB7v160006IPiS1_NS_18__unwrap_iter_implIS1_Lb1EEEEET_S4_T0_, symObjAddr: 0x1704, symBinAddr: 0x100003314, symSize: 0x3C }
  - { offsetInCU: 0x9924, offset: 0x9924, size: 0x8, addend: 0x0, symName: __ZNSt3__19make_pairB7v160006IPKiS2_EENS_4pairINS_18__unwrap_ref_decayIT_E4typeENS4_IT0_E4typeEEEOS5_OS8_, symObjAddr: 0x1740, symBinAddr: 0x100003350, symSize: 0x38 }
  - { offsetInCU: 0x9973, offset: 0x9973, size: 0x8, addend: 0x0, symName: __ZNSt3__113__unwrap_iterB7v160006IPKiNS_18__unwrap_iter_implIS2_Lb1EEELi0EEEDTclsrT0_8__unwrapclsr3stdE7declvalIT_EEEES6_, symObjAddr: 0x1778, symBinAddr: 0x100003388, symSize: 0x24 }
  - { offsetInCU: 0x9ADE, offset: 0x9ADE, size: 0x8, addend: 0x0, symName: __ZNSt3__112__to_addressB7v160006IKiEEPT_S3_, symObjAddr: 0x1830, symBinAddr: 0x100003440, symSize: 0x14 }
  - { offsetInCU: 0x9B13, offset: 0x9B13, size: 0x8, addend: 0x0, symName: __ZNSt3__119__copy_trivial_implB7v160006IKiiEENS_4pairIPT_PT0_EES4_S4_S6_, symObjAddr: 0x1844, symBinAddr: 0x100003454, symSize: 0x84 }
  - { offsetInCU: 0x9B7B, offset: 0x9B7B, size: 0x8, addend: 0x0, symName: __ZNSt3__19make_pairB7v160006IRPKiPiEENS_4pairINS_18__unwrap_ref_decayIT_E4typeENS6_IT0_E4typeEEEOS7_OSA_, symObjAddr: 0x18C8, symBinAddr: 0x1000034D8, symSize: 0x38 }
  - { offsetInCU: 0x9C1D, offset: 0x9C1D, size: 0x8, addend: 0x0, symName: __ZNSt3__113__rewrap_iterB7v160006IPKiS2_NS_18__unwrap_iter_implIS2_Lb1EEEEET_S5_T0_, symObjAddr: 0x1A04, symBinAddr: 0x100003614, symSize: 0x3C }
  - { offsetInCU: 0x9C72, offset: 0x9C72, size: 0x8, addend: 0x0, symName: __ZNSt3__118__debug_db_erase_cB7v160006INS_6vectorIiNS_9allocatorIiEEEEEEvPT_, symObjAddr: 0x1CA4, symBinAddr: 0x1000038B4, symSize: 0x10 }
  - { offsetInCU: 0x9CA3, offset: 0x9CA3, size: 0x8, addend: 0x0, symName: __ZNSt3__119__libcpp_deallocateB7v160006EPvmm, symObjAddr: 0x1E44, symBinAddr: 0x100003A54, symSize: 0x60 }
  - { offsetInCU: 0x9D08, offset: 0x9D08, size: 0x8, addend: 0x0, symName: __ZNSt3__127__do_deallocate_handle_sizeB7v160006IJSt11align_val_tEEEvPvmDpT_, symObjAddr: 0x1EA4, symBinAddr: 0x100003AB4, symSize: 0x30 }
  - { offsetInCU: 0x9D5B, offset: 0x9D5B, size: 0x8, addend: 0x0, symName: __ZNSt3__127__do_deallocate_handle_sizeB7v160006IJEEEvPvmDpT_, symObjAddr: 0x1ED4, symBinAddr: 0x100003AE4, symSize: 0x28 }
  - { offsetInCU: 0x9D99, offset: 0x9D99, size: 0x8, addend: 0x0, symName: __ZNSt3__124__libcpp_operator_deleteB7v160006IJPvSt11align_val_tEEEvDpT_, symObjAddr: 0x1EFC, symBinAddr: 0x100003B0C, symSize: 0x2C }
  - { offsetInCU: 0x9DE2, offset: 0x9DE2, size: 0x8, addend: 0x0, symName: __ZNSt3__124__libcpp_operator_deleteB7v160006IJPvEEEvDpT_, symObjAddr: 0x1F28, symBinAddr: 0x100003B38, symSize: 0x24 }
  - { offsetInCU: 0x9E17, offset: 0x9E17, size: 0x8, addend: 0x0, symName: __ZNSt3__116__pad_and_outputB7v160006IcNS_11char_traitsIcEEEENS_19ostreambuf_iteratorIT_T0_EES6_PKS4_S8_S8_RNS_8ios_baseES4_, symObjAddr: 0x21CC, symBinAddr: 0x100003DDC, symSize: 0x240 }
  - { offsetInCU: 0x9EE6, offset: 0x9EE6, size: 0x8, addend: 0x0, symName: __ZNSt3__119__debug_db_insert_cB7v160006INS_12basic_stringIcNS_11char_traitsIcEENS_9allocatorIcEEEEEEvPT_, symObjAddr: 0x2680, symBinAddr: 0x100004290, symSize: 0x10 }
  - { offsetInCU: 0x9F17, offset: 0x9F17, size: 0x8, addend: 0x0, symName: __ZNSt3__112__to_addressB7v160006IcEEPT_S2_, symObjAddr: 0x274C, symBinAddr: 0x10000435C, symSize: 0x14 }
  - { offsetInCU: 0x9F7F, offset: 0x9F7F, size: 0x8, addend: 0x0, symName: __ZNSt3__19use_facetB7v160006INS_5ctypeIcEEEERKT_RKNS_6localeE, symObjAddr: 0x2A04, symBinAddr: 0x100004614, symSize: 0x2C }
  - { offsetInCU: 0xA44E, offset: 0xA44E, size: 0x8, addend: 0x0, symName: __ZNSt3__118__constexpr_strlenB7v160006EPKc, symObjAddr: 0x2A9C, symBinAddr: 0x1000046AC, symSize: 0x24 }
  - { offsetInCU: 0xA47A, offset: 0xA47A, size: 0x8, addend: 0x0, symName: __ZNSt3__130__uninitialized_allocator_copyB7v160006INS_9allocatorIiEEPiS3_S3_EET2_RT_T0_T1_S4_, symObjAddr: 0x2D04, symBinAddr: 0x100004914, symSize: 0xF4 }
  - { offsetInCU: 0xA518, offset: 0xA518, size: 0x8, addend: 0x0, symName: __ZNSt3__122__make_exception_guardB7v160006INS_29_AllocatorDestroyRangeReverseINS_9allocatorIiEEPiEEEENS_28__exception_guard_exceptionsIT_EES7_, symObjAddr: 0x2DF8, symBinAddr: 0x100004A08, symSize: 0x4C }
  - { offsetInCU: 0xA54E, offset: 0xA54E, size: 0x8, addend: 0x0, symName: __ZNSt3__119__allocator_destroyB7v160006INS_9allocatorIiEENS_16reverse_iteratorIPiEES5_EEvRT_T0_T1_, symObjAddr: 0x3080, symBinAddr: 0x100004C90, symSize: 0x70 }
  - { offsetInCU: 0xA5B1, offset: 0xA5B1, size: 0x8, addend: 0x0, symName: __ZNSt3__1neB7v160006IPiS1_EEbRKNS_16reverse_iteratorIT_EERKNS2_IT0_EE, symObjAddr: 0x3124, symBinAddr: 0x100004D34, symSize: 0x48 }
  - { offsetInCU: 0xA5FD, offset: 0xA5FD, size: 0x8, addend: 0x0, symName: __ZNSt3__112__to_addressB7v160006INS_16reverse_iteratorIPiEEvEENS_5decayIDTclsr19__to_address_helperIT_EE6__callclsr3stdE7declvalIRKS5_EEEEE4typeES7_, symObjAddr: 0x316C, symBinAddr: 0x100004D7C, symSize: 0x24 }
  - { offsetInCU: 0xA65C, offset: 0xA65C, size: 0x8, addend: 0x0, symName: __ZNSt3__119__debug_db_insert_cB7v160006INS_13unordered_setIiNS_4hashIiEENS_8equal_toIiEENS_9allocatorIiEEEEEEvPT_, symObjAddr: 0x33BC, symBinAddr: 0x100004FCC, symSize: 0x10 }
  - { offsetInCU: 0xA68D, offset: 0xA68D, size: 0x8, addend: 0x0, symName: __ZNSt3__116__constrain_hashB7v160006Emm, symObjAddr: 0x3F94, symBinAddr: 0x100005BA4, symSize: 0x98 }
  - { offsetInCU: 0xA6C7, offset: 0xA6C7, size: 0x8, addend: 0x0, symName: __ZNSt3__13maxB7v160006ImEERKT_S3_S3_, symObjAddr: 0x42B4, symBinAddr: 0x100005EC4, symSize: 0x2C }
  - { offsetInCU: 0xA70A, offset: 0xA70A, size: 0x8, addend: 0x0, symName: __ZNSt3__116__is_hash_power2B7v160006Em, symObjAddr: 0x42E0, symBinAddr: 0x100005EF0, symSize: 0x50 }
  - { offsetInCU: 0xA787, offset: 0xA787, size: 0x8, addend: 0x0, symName: __ZNSt3__116__next_hash_pow2B7v160006Em, symObjAddr: 0x4EB0, symBinAddr: 0x100006AC0, symSize: 0x6C }
  - { offsetInCU: 0xA7B3, offset: 0xA7B3, size: 0x8, addend: 0x0, symName: __ZNSt3__125__debug_db_invalidate_allB7v160006INS_12__hash_tableIiNS_4hashIiEENS_8equal_toIiEENS_9allocatorIiEEEEEEvPT_, symObjAddr: 0x4F1C, symBinAddr: 0x100006B2C, symSize: 0x10 }
  - { offsetInCU: 0xA800, offset: 0xA800, size: 0x8, addend: 0x0, symName: __ZNSt3__112__libcpp_clzB7v160006Em, symObjAddr: 0x5268, symBinAddr: 0x100006E78, symSize: 0x1C }
  - { offsetInCU: 0xA82C, offset: 0xA82C, size: 0x8, addend: 0x0, symName: __ZNSt3__13maxB7v160006ImNS_6__lessImmEEEERKT_S5_S5_T0_, symObjAddr: 0x5284, symBinAddr: 0x100006E94, symSize: 0x54 }
  - { offsetInCU: 0xA886, offset: 0xA886, size: 0x8, addend: 0x0, symName: __ZNSt3__118__debug_db_erase_cB7v160006INS_12__hash_tableIiNS_4hashIiEENS_8equal_toIiEENS_9allocatorIiEEEEEEvPT_, symObjAddr: 0x566C, symBinAddr: 0x10000727C, symSize: 0x10 }
  - { offsetInCU: 0xA8B7, offset: 0xA8B7, size: 0x8, addend: 0x0, symName: __ZNSt3__1eqB7v160006ERKNS_21__hash_const_iteratorIPNS_11__hash_nodeIiPvEEEES7_, symObjAddr: 0x59B0, symBinAddr: 0x1000075C0, symSize: 0x30 }
  - { offsetInCU: 0xAC19, offset: 0xAC19, size: 0x8, addend: 0x0, symName: __ZSt28__throw_bad_array_new_lengthB7v160006v, symObjAddr: 0x1104, symBinAddr: 0x100002D14, symSize: 0x34 }
  - { offsetInCU: 0xD7D4, offset: 0xD7D4, size: 0x8, addend: 0x0, symName: _main, symObjAddr: 0x0, symBinAddr: 0x100001C10, symSize: 0x1FC }
  - { offsetInCU: 0xD80D, offset: 0xD80D, size: 0x8, addend: 0x0, symName: __ZNSt3__16vectorIiNS_9allocatorIiEEEC1B7v160006ESt16initializer_listIiE, symObjAddr: 0x1FC, symBinAddr: 0x100001E0C, symSize: 0x3C }
  - { offsetInCU: 0xD848, offset: 0xD848, size: 0x8, addend: 0x0, symName: __ZNSt3__113basic_ostreamIcNS_11char_traitsIcEEElsB7v160006EPFRNS_8ios_baseES5_E, symObjAddr: 0x280, symBinAddr: 0x100001E90, symSize: 0x40 }
  - { offsetInCU: 0xD87B, offset: 0xD87B, size: 0x8, addend: 0x0, symName: __Z12itemInCommonNSt3__16vectorIiNS_9allocatorIiEEEES3_, symObjAddr: 0x2EC, symBinAddr: 0x100001EFC, symSize: 0x164 }
  - { offsetInCU: 0xD913, offset: 0xD913, size: 0x8, addend: 0x0, symName: __ZNSt3__16vectorIiNS_9allocatorIiEEEC1ERKS3_, symObjAddr: 0x450, symBinAddr: 0x100002060, symSize: 0x34 }
  - { offsetInCU: 0xD94E, offset: 0xD94E, size: 0x8, addend: 0x0, symName: __ZNSt3__113basic_ostreamIcNS_11char_traitsIcEEElsB7v160006EPFRS3_S4_E, symObjAddr: 0x484, symBinAddr: 0x100002094, symSize: 0x2C }
  - { offsetInCU: 0xD982, offset: 0xD982, size: 0x8, addend: 0x0, symName: __ZNSt3__16vectorIiNS_9allocatorIiEEED1B7v160006Ev, symObjAddr: 0x508, symBinAddr: 0x100002118, symSize: 0x2C }
  - { offsetInCU: 0xD9AC, offset: 0xD9AC, size: 0x8, addend: 0x0, symName: __ZNSt3__16vectorIiNS_9allocatorIiEEE5beginB7v160006Ev, symObjAddr: 0x534, symBinAddr: 0x100002144, symSize: 0x30 }
  - { offsetInCU: 0xD9D4, offset: 0xD9D4, size: 0x8, addend: 0x0, symName: __ZNSt3__16vectorIiNS_9allocatorIiEEE3endB7v160006Ev, symObjAddr: 0x564, symBinAddr: 0x100002174, symSize: 0x30 }
  - { offsetInCU: 0xDA56, offset: 0xDA56, size: 0x8, addend: 0x0, symName: __ZNSt3__113unordered_setIiNS_4hashIiEENS_8equal_toIiEENS_9allocatorIiEEEC1INS_11__wrap_iterIPiEEEET_SC_, symObjAddr: 0x594, symBinAddr: 0x1000021A4, symSize: 0x3C }
  - { offsetInCU: 0xDAA9, offset: 0xDAA9, size: 0x8, addend: 0x0, symName: __ZNKSt3__111__wrap_iterIPiEdeB7v160006Ev, symObjAddr: 0x604, symBinAddr: 0x100002214, symSize: 0x18 }
  - { offsetInCU: 0xDACF, offset: 0xDACF, size: 0x8, addend: 0x0, symName: __ZNSt3__113unordered_setIiNS_4hashIiEENS_8equal_toIiEENS_9allocatorIiEEE4findB7v160006ERKi, symObjAddr: 0x650, symBinAddr: 0x100002260, symSize: 0x40 }
  - { offsetInCU: 0xDB04, offset: 0xDB04, size: 0x8, addend: 0x0, symName: __ZNSt3__113unordered_setIiNS_4hashIiEENS_8equal_toIiEENS_9allocatorIiEEE3endB7v160006Ev, symObjAddr: 0x690, symBinAddr: 0x1000022A0, symSize: 0x38 }
  - { offsetInCU: 0xDB2A, offset: 0xDB2A, size: 0x8, addend: 0x0, symName: __ZNSt3__111__wrap_iterIPiEppB7v160006Ev, symObjAddr: 0x6C8, symBinAddr: 0x1000022D8, symSize: 0x20 }
  - { offsetInCU: 0xDB50, offset: 0xDB50, size: 0x8, addend: 0x0, symName: __ZNSt3__113unordered_setIiNS_4hashIiEENS_8equal_toIiEENS_9allocatorIiEEED1B7v160006Ev, symObjAddr: 0x6E8, symBinAddr: 0x1000022F8, symSize: 0x2C }
  - { offsetInCU: 0xDB7A, offset: 0xDB7A, size: 0x8, addend: 0x0, symName: __ZNSt3__18ios_base4setfB7v160006Ej, symObjAddr: 0x714, symBinAddr: 0x100002324, symSize: 0x34 }
  - { offsetInCU: 0xDBC0, offset: 0xDBC0, size: 0x8, addend: 0x0, symName: __ZNKSt3__111__wrap_iterIPiE4baseB7v160006Ev, symObjAddr: 0x790, symBinAddr: 0x1000023A0, symSize: 0x18 }
  - { offsetInCU: 0xDBE6, offset: 0xDBE6, size: 0x8, addend: 0x0, symName: __ZNSt3__16vectorIiNS_9allocatorIiEEEC2B7v160006ESt16initializer_listIiE, symObjAddr: 0x7A8, symBinAddr: 0x1000023B8, symSize: 0x124 }
  - { offsetInCU: 0xDC41, offset: 0xDC41, size: 0x8, addend: 0x0, symName: __ZNSt3__117__compressed_pairIPiNS_9allocatorIiEEEC1B7v160006IDnNS_18__default_init_tagEEEOT_OT0_, symObjAddr: 0x8CC, symBinAddr: 0x1000024DC, symSize: 0x3C }
  - { offsetInCU: 0xDC99, offset: 0xDC99, size: 0x8, addend: 0x0, symName: __ZNSt3__16vectorIiNS_9allocatorIiEEE16__destroy_vectorC1ERS3_, symObjAddr: 0x948, symBinAddr: 0x100002558, symSize: 0x34 }
  - { offsetInCU: 0xDCD2, offset: 0xDCD2, size: 0x8, addend: 0x0, symName: __ZNKSt16initializer_listIiE4sizeB7v160006Ev, symObjAddr: 0x98C, symBinAddr: 0x10000259C, symSize: 0x18 }
  - { offsetInCU: 0xDCF8, offset: 0xDCF8, size: 0x8, addend: 0x0, symName: __ZNSt3__16vectorIiNS_9allocatorIiEEE11__vallocateB7v160006Em, symObjAddr: 0x9A4, symBinAddr: 0x1000025B4, symSize: 0xAC }
  - { offsetInCU: 0xDD3C, offset: 0xDD3C, size: 0x8, addend: 0x0, symName: __ZNSt3__16vectorIiNS_9allocatorIiEEE18__construct_at_endIPKiLi0EEEvT_S7_m, symObjAddr: 0xA50, symBinAddr: 0x100002660, symSize: 0x8C }
  - { offsetInCU: 0xDDAF, offset: 0xDDAF, size: 0x8, addend: 0x0, symName: __ZNKSt16initializer_listIiE5beginB7v160006Ev, symObjAddr: 0xADC, symBinAddr: 0x1000026EC, symSize: 0x18 }
  - { offsetInCU: 0xDDD5, offset: 0xDDD5, size: 0x8, addend: 0x0, symName: __ZNKSt16initializer_listIiE3endB7v160006Ev, symObjAddr: 0xAF4, symBinAddr: 0x100002704, symSize: 0x20 }
  - { offsetInCU: 0xDDFB, offset: 0xDDFB, size: 0x8, addend: 0x0, symName: __ZNSt3__128__exception_guard_exceptionsINS_6vectorIiNS_9allocatorIiEEE16__destroy_vectorEE10__completeB7v160006Ev, symObjAddr: 0xB14, symBinAddr: 0x100002724, symSize: 0x1C }
  - { offsetInCU: 0xDE21, offset: 0xDE21, size: 0x8, addend: 0x0, symName: __ZNSt3__128__exception_guard_exceptionsINS_6vectorIiNS_9allocatorIiEEE16__destroy_vectorEED1B7v160006Ev, symObjAddr: 0xB30, symBinAddr: 0x100002740, symSize: 0x2C }
  - { offsetInCU: 0xDE4B, offset: 0xDE4B, size: 0x8, addend: 0x0, symName: __ZNSt3__117__compressed_pairIPiNS_9allocatorIiEEEC2B7v160006IDnNS_18__default_init_tagEEEOT_OT0_, symObjAddr: 0xB5C, symBinAddr: 0x10000276C, symSize: 0x40 }
  - { offsetInCU: 0xDEA3, offset: 0xDEA3, size: 0x8, addend: 0x0, symName: __ZNSt3__122__compressed_pair_elemIPiLi0ELb0EEC2B7v160006IDnvEEOT_, symObjAddr: 0xB9C, symBinAddr: 0x1000027AC, symSize: 0x1C }
  - { offsetInCU: 0xDEE5, offset: 0xDEE5, size: 0x8, addend: 0x0, symName: __ZNSt3__122__compressed_pair_elemINS_9allocatorIiEELi1ELb1EEC2B7v160006ENS_18__default_init_tagE, symObjAddr: 0xBB8, symBinAddr: 0x1000027C8, symSize: 0x2C }
  - { offsetInCU: 0xDF1A, offset: 0xDF1A, size: 0x8, addend: 0x0, symName: __ZNSt3__19allocatorIiEC2B7v160006Ev, symObjAddr: 0xBE4, symBinAddr: 0x1000027F4, symSize: 0x2C }
  - { offsetInCU: 0xDF44, offset: 0xDF44, size: 0x8, addend: 0x0, symName: __ZNSt3__116__non_trivial_ifILb1ENS_9allocatorIiEEEC2B7v160006Ev, symObjAddr: 0xC10, symBinAddr: 0x100002820, symSize: 0x14 }
  - { offsetInCU: 0xDF6E, offset: 0xDF6E, size: 0x8, addend: 0x0, symName: __ZNSt3__128__exception_guard_exceptionsINS_6vectorIiNS_9allocatorIiEEE16__destroy_vectorEEC1B7v160006ES5_, symObjAddr: 0xC24, symBinAddr: 0x100002834, symSize: 0x34 }
  - { offsetInCU: 0xDFA6, offset: 0xDFA6, size: 0x8, addend: 0x0, symName: __ZNSt3__128__exception_guard_exceptionsINS_6vectorIiNS_9allocatorIiEEE16__destroy_vectorEEC2B7v160006ES5_, symObjAddr: 0xC58, symBinAddr: 0x100002868, symSize: 0x24 }
  - { offsetInCU: 0xDFDE, offset: 0xDFDE, size: 0x8, addend: 0x0, symName: __ZNSt3__16vectorIiNS_9allocatorIiEEE16__destroy_vectorC2ERS3_, symObjAddr: 0xC7C, symBinAddr: 0x10000288C, symSize: 0x20 }
  - { offsetInCU: 0xE017, offset: 0xE017, size: 0x8, addend: 0x0, symName: __ZNKSt3__16vectorIiNS_9allocatorIiEEE8max_sizeEv, symObjAddr: 0xC9C, symBinAddr: 0x1000028AC, symSize: 0x60 }
  - { offsetInCU: 0xE03F, offset: 0xE03F, size: 0x8, addend: 0x0, symName: __ZNKSt3__16vectorIiNS_9allocatorIiEEE20__throw_length_errorB7v160006Ev, symObjAddr: 0xCFC, symBinAddr: 0x10000290C, symSize: 0x1C }
  - { offsetInCU: 0xE065, offset: 0xE065, size: 0x8, addend: 0x0, symName: __ZNSt3__16vectorIiNS_9allocatorIiEEE7__allocB7v160006Ev, symObjAddr: 0xD58, symBinAddr: 0x100002968, symSize: 0x28 }
  - { offsetInCU: 0xE08B, offset: 0xE08B, size: 0x8, addend: 0x0, symName: __ZNSt3__16vectorIiNS_9allocatorIiEEE9__end_capB7v160006Ev, symObjAddr: 0xD80, symBinAddr: 0x100002990, symSize: 0x28 }
  - { offsetInCU: 0xE0B1, offset: 0xE0B1, size: 0x8, addend: 0x0, symName: __ZNKSt3__16vectorIiNS_9allocatorIiEEE14__annotate_newB7v160006Em, symObjAddr: 0xDA8, symBinAddr: 0x1000029B8, symSize: 0xAC }
  - { offsetInCU: 0xE0F0, offset: 0xE0F0, size: 0x8, addend: 0x0, symName: __ZNSt3__116allocator_traitsINS_9allocatorIiEEE8max_sizeB7v160006IS2_vEEmRKS2_, symObjAddr: 0xE80, symBinAddr: 0x100002A90, symSize: 0x24 }
  - { offsetInCU: 0xE11E, offset: 0xE11E, size: 0x8, addend: 0x0, symName: __ZNKSt3__16vectorIiNS_9allocatorIiEEE7__allocB7v160006Ev, symObjAddr: 0xEA4, symBinAddr: 0x100002AB4, symSize: 0x28 }
  - { offsetInCU: 0xE144, offset: 0xE144, size: 0x8, addend: 0x0, symName: __ZNSt3__114numeric_limitsIlE3maxB7v160006Ev, symObjAddr: 0xECC, symBinAddr: 0x100002ADC, symSize: 0x14 }
  - { offsetInCU: 0xE162, offset: 0xE162, size: 0x8, addend: 0x0, symName: __ZNKSt3__16__lessImmEclB7v160006ERKmS3_, symObjAddr: 0xF40, symBinAddr: 0x100002B50, symSize: 0x34 }
  - { offsetInCU: 0xE1A4, offset: 0xE1A4, size: 0x8, addend: 0x0, symName: __ZNKSt3__19allocatorIiE8max_sizeB7v160006Ev, symObjAddr: 0xF74, symBinAddr: 0x100002B84, symSize: 0x14 }
  - { offsetInCU: 0xE1CA, offset: 0xE1CA, size: 0x8, addend: 0x0, symName: __ZNKSt3__117__compressed_pairIPiNS_9allocatorIiEEE6secondB7v160006Ev, symObjAddr: 0xF88, symBinAddr: 0x100002B98, symSize: 0x24 }
  - { offsetInCU: 0xE1F0, offset: 0xE1F0, size: 0x8, addend: 0x0, symName: __ZNKSt3__122__compressed_pair_elemINS_9allocatorIiEELi1ELb1EE5__getB7v160006Ev, symObjAddr: 0xFAC, symBinAddr: 0x100002BBC, symSize: 0x14 }
  - { offsetInCU: 0xE216, offset: 0xE216, size: 0x8, addend: 0x0, symName: __ZNSt3__123__libcpp_numeric_limitsIlLb1EE3maxB7v160006Ev, symObjAddr: 0xFC0, symBinAddr: 0x100002BD0, symSize: 0x8 }
  - { offsetInCU: 0xE22A, offset: 0xE22A, size: 0x8, addend: 0x0, symName: __ZNSt12length_errorC1B7v160006EPKc, symObjAddr: 0x102C, symBinAddr: 0x100002C3C, symSize: 0x34 }
  - { offsetInCU: 0xE262, offset: 0xE262, size: 0x8, addend: 0x0, symName: __ZNSt12length_errorC2B7v160006EPKc, symObjAddr: 0x1060, symBinAddr: 0x100002C70, symSize: 0x4C }
  - { offsetInCU: 0xE29A, offset: 0xE29A, size: 0x8, addend: 0x0, symName: __ZNSt3__19allocatorIiE8allocateB7v160006Em, symObjAddr: 0x10AC, symBinAddr: 0x100002CBC, symSize: 0x58 }
  - { offsetInCU: 0xE2CE, offset: 0xE2CE, size: 0x8, addend: 0x0, symName: __ZNSt3__117__compressed_pairIPiNS_9allocatorIiEEE6secondB7v160006Ev, symObjAddr: 0x1208, symBinAddr: 0x100002E18, symSize: 0x24 }
  - { offsetInCU: 0xE2F4, offset: 0xE2F4, size: 0x8, addend: 0x0, symName: __ZNSt3__122__compressed_pair_elemINS_9allocatorIiEELi1ELb1EE5__getB7v160006Ev, symObjAddr: 0x122C, symBinAddr: 0x100002E3C, symSize: 0x14 }
  - { offsetInCU: 0xE31A, offset: 0xE31A, size: 0x8, addend: 0x0, symName: __ZNSt3__117__compressed_pairIPiNS_9allocatorIiEEE5firstB7v160006Ev, symObjAddr: 0x1240, symBinAddr: 0x100002E50, symSize: 0x24 }
  - { offsetInCU: 0xE340, offset: 0xE340, size: 0x8, addend: 0x0, symName: __ZNSt3__122__compressed_pair_elemIPiLi0ELb0EE5__getB7v160006Ev, symObjAddr: 0x1264, symBinAddr: 0x100002E74, symSize: 0x14 }
  - { offsetInCU: 0xE366, offset: 0xE366, size: 0x8, addend: 0x0, symName: __ZNKSt3__16vectorIiNS_9allocatorIiEEE31__annotate_contiguous_containerB7v160006EPKvS5_S5_S5_, symObjAddr: 0x1278, symBinAddr: 0x100002E88, symSize: 0x20 }
  - { offsetInCU: 0xE3B8, offset: 0xE3B8, size: 0x8, addend: 0x0, symName: __ZNKSt3__16vectorIiNS_9allocatorIiEEE4dataB7v160006Ev, symObjAddr: 0x1298, symBinAddr: 0x100002EA8, symSize: 0x28 }
  - { offsetInCU: 0xE3DE, offset: 0xE3DE, size: 0x8, addend: 0x0, symName: __ZNKSt3__16vectorIiNS_9allocatorIiEEE8capacityB7v160006Ev, symObjAddr: 0x12C0, symBinAddr: 0x100002ED0, symSize: 0x40 }
  - { offsetInCU: 0xE404, offset: 0xE404, size: 0x8, addend: 0x0, symName: __ZNKSt3__16vectorIiNS_9allocatorIiEEE9__end_capB7v160006Ev, symObjAddr: 0x1314, symBinAddr: 0x100002F24, symSize: 0x28 }
  - { offsetInCU: 0xE42A, offset: 0xE42A, size: 0x8, addend: 0x0, symName: __ZNKSt3__117__compressed_pairIPiNS_9allocatorIiEEE5firstB7v160006Ev, symObjAddr: 0x133C, symBinAddr: 0x100002F4C, symSize: 0x24 }
  - { offsetInCU: 0xE450, offset: 0xE450, size: 0x8, addend: 0x0, symName: __ZNKSt3__122__compressed_pair_elemIPiLi0ELb0EE5__getB7v160006Ev, symObjAddr: 0x1360, symBinAddr: 0x100002F70, symSize: 0x14 }
  - { offsetInCU: 0xE48F, offset: 0xE48F, size: 0x8, addend: 0x0, symName: __ZNSt3__16vectorIiNS_9allocatorIiEEE21_ConstructTransactionC1B7v160006ERS3_m, symObjAddr: 0x1374, symBinAddr: 0x100002F84, symSize: 0x3C }
  - { offsetInCU: 0xE4D7, offset: 0xE4D7, size: 0x8, addend: 0x0, symName: __ZNSt3__16vectorIiNS_9allocatorIiEEE21_ConstructTransactionD1B7v160006Ev, symObjAddr: 0x13E8, symBinAddr: 0x100002FF8, symSize: 0x2C }
  - { offsetInCU: 0xE501, offset: 0xE501, size: 0x8, addend: 0x0, symName: __ZNSt3__16vectorIiNS_9allocatorIiEEE21_ConstructTransactionC2B7v160006ERS3_m, symObjAddr: 0x1414, symBinAddr: 0x100003024, symSize: 0x44 }
  - { offsetInCU: 0xE56C, offset: 0xE56C, size: 0x8, addend: 0x0, symName: __ZNKSt3__114__copy_trivialclB7v160006IKiiLi0EEENS_4pairIPT_PT0_EES5_S5_S7_, symObjAddr: 0x1634, symBinAddr: 0x100003244, symSize: 0x48 }
  - { offsetInCU: 0xE5F2, offset: 0xE5F2, size: 0x8, addend: 0x0, symName: __ZNSt3__14pairIPKiS2_EC1B7v160006IS2_S2_LPv0EEEOT_OT0_, symObjAddr: 0x179C, symBinAddr: 0x1000033AC, symSize: 0x3C }
  - { offsetInCU: 0xE650, offset: 0xE650, size: 0x8, addend: 0x0, symName: __ZNSt3__14pairIPKiS2_EC2B7v160006IS2_S2_LPv0EEEOT_OT0_, symObjAddr: 0x17D8, symBinAddr: 0x1000033E8, symSize: 0x34 }
  - { offsetInCU: 0xE6AE, offset: 0xE6AE, size: 0x8, addend: 0x0, symName: __ZNSt3__118__unwrap_iter_implIPKiLb1EE8__unwrapB7v160006ES2_, symObjAddr: 0x180C, symBinAddr: 0x10000341C, symSize: 0x24 }
  - { offsetInCU: 0xE6DB, offset: 0xE6DB, size: 0x8, addend: 0x0, symName: __ZNSt3__14pairIPKiPiEC1B7v160006IRS2_S3_LPv0EEEOT_OT0_, symObjAddr: 0x1900, symBinAddr: 0x100003510, symSize: 0x3C }
  - { offsetInCU: 0xE739, offset: 0xE739, size: 0x8, addend: 0x0, symName: __ZNSt3__14pairIPKiPiEC2B7v160006IRS2_S3_LPv0EEEOT_OT0_, symObjAddr: 0x193C, symBinAddr: 0x10000354C, symSize: 0x34 }
  - { offsetInCU: 0xE797, offset: 0xE797, size: 0x8, addend: 0x0, symName: __ZNSt3__118__unwrap_iter_implIPiLb1EE8__unwrapB7v160006ES1_, symObjAddr: 0x1970, symBinAddr: 0x100003580, symSize: 0x24 }
  - { offsetInCU: 0xE7BA, offset: 0xE7BA, size: 0x8, addend: 0x0, symName: __ZNSt3__14pairIPKiPiEC1B7v160006IS2_S3_LPv0EEEOT_OT0_, symObjAddr: 0x1994, symBinAddr: 0x1000035A4, symSize: 0x3C }
  - { offsetInCU: 0xE818, offset: 0xE818, size: 0x8, addend: 0x0, symName: __ZNSt3__14pairIPKiPiEC2B7v160006IS2_S3_LPv0EEEOT_OT0_, symObjAddr: 0x19D0, symBinAddr: 0x1000035E0, symSize: 0x34 }
  - { offsetInCU: 0xE876, offset: 0xE876, size: 0x8, addend: 0x0, symName: __ZNSt3__118__unwrap_iter_implIPKiLb1EE8__rewrapB7v160006ES2_S2_, symObjAddr: 0x1A40, symBinAddr: 0x100003650, symSize: 0x50 }
  - { offsetInCU: 0xE8A7, offset: 0xE8A7, size: 0x8, addend: 0x0, symName: __ZNSt3__118__unwrap_iter_implIPiLb1EE8__rewrapB7v160006ES1_S1_, symObjAddr: 0x1A90, symBinAddr: 0x1000036A0, symSize: 0x50 }
  - { offsetInCU: 0xE8D8, offset: 0xE8D8, size: 0x8, addend: 0x0, symName: __ZNSt3__16vectorIiNS_9allocatorIiEEE21_ConstructTransactionD2B7v160006Ev, symObjAddr: 0x1AE0, symBinAddr: 0x1000036F0, symSize: 0x20 }
  - { offsetInCU: 0xE902, offset: 0xE902, size: 0x8, addend: 0x0, symName: __ZNSt3__128__exception_guard_exceptionsINS_6vectorIiNS_9allocatorIiEEE16__destroy_vectorEED2B7v160006Ev, symObjAddr: 0x1B00, symBinAddr: 0x100003710, symSize: 0x50 }
  - { offsetInCU: 0xE92C, offset: 0xE92C, size: 0x8, addend: 0x0, symName: __ZNSt3__16vectorIiNS_9allocatorIiEEE16__destroy_vectorclB7v160006Ev, symObjAddr: 0x1B50, symBinAddr: 0x100003760, symSize: 0x9C }
  - { offsetInCU: 0xE952, offset: 0xE952, size: 0x8, addend: 0x0, symName: __ZNKSt3__16vectorIiNS_9allocatorIiEEE17__annotate_deleteB7v160006Ev, symObjAddr: 0x1BEC, symBinAddr: 0x1000037FC, symSize: 0xB8 }
  - { offsetInCU: 0xE978, offset: 0xE978, size: 0x8, addend: 0x0, symName: __ZNSt3__16vectorIiNS_9allocatorIiEEE7__clearB7v160006Ev, symObjAddr: 0x1CB4, symBinAddr: 0x1000038C4, symSize: 0x28 }
  - { offsetInCU: 0xE99E, offset: 0xE99E, size: 0x8, addend: 0x0, symName: __ZNSt3__116allocator_traitsINS_9allocatorIiEEE10deallocateB7v160006ERS2_Pim, symObjAddr: 0x1CDC, symBinAddr: 0x1000038EC, symSize: 0x34 }
  - { offsetInCU: 0xE9E0, offset: 0xE9E0, size: 0x8, addend: 0x0, symName: __ZNKSt3__16vectorIiNS_9allocatorIiEEE4sizeB7v160006Ev, symObjAddr: 0x1D10, symBinAddr: 0x100003920, symSize: 0x28 }
  - { offsetInCU: 0xEA06, offset: 0xEA06, size: 0x8, addend: 0x0, symName: __ZNSt3__16vectorIiNS_9allocatorIiEEE22__base_destruct_at_endB7v160006EPi, symObjAddr: 0x1D38, symBinAddr: 0x100003948, symSize: 0x8C }
  - { offsetInCU: 0xEA4A, offset: 0xEA4A, size: 0x8, addend: 0x0, symName: __ZNSt3__116allocator_traitsINS_9allocatorIiEEE7destroyB7v160006IivEEvRS2_PT_, symObjAddr: 0x1DC4, symBinAddr: 0x1000039D4, symSize: 0x2C }
  - { offsetInCU: 0xEA87, offset: 0xEA87, size: 0x8, addend: 0x0, symName: __ZNSt3__19allocatorIiE7destroyB7v160006EPi, symObjAddr: 0x1DF0, symBinAddr: 0x100003A00, symSize: 0x14 }
  - { offsetInCU: 0xEABB, offset: 0xEABB, size: 0x8, addend: 0x0, symName: __ZNSt3__19allocatorIiE10deallocateB7v160006EPim, symObjAddr: 0x1E04, symBinAddr: 0x100003A14, symSize: 0x40 }
  - { offsetInCU: 0xEAFD, offset: 0xEAFD, size: 0x8, addend: 0x0, symName: __ZNSt3__16vectorIiNS_9allocatorIiEEED2B7v160006Ev, symObjAddr: 0x1F4C, symBinAddr: 0x100003B5C, symSize: 0x44 }
  - { offsetInCU: 0xEB27, offset: 0xEB27, size: 0x8, addend: 0x0, symName: __ZNSt3__111char_traitsIcE6lengthEPKc, symObjAddr: 0x217C, symBinAddr: 0x100003D8C, symSize: 0x34 }
  - { offsetInCU: 0xEB68, offset: 0xEB68, size: 0x8, addend: 0x0, symName: __ZNKSt3__113basic_ostreamIcNS_11char_traitsIcEEE6sentrycvbB7v160006Ev, symObjAddr: 0x21B0, symBinAddr: 0x100003DC0, symSize: 0x1C }
  - { offsetInCU: 0xEB8E, offset: 0xEB8E, size: 0x8, addend: 0x0, symName: __ZNSt3__119ostreambuf_iteratorIcNS_11char_traitsIcEEEC1B7v160006ERNS_13basic_ostreamIcS2_EE, symObjAddr: 0x240C, symBinAddr: 0x10000401C, symSize: 0x34 }
  - { offsetInCU: 0xEBC6, offset: 0xEBC6, size: 0x8, addend: 0x0, symName: __ZNKSt3__18ios_base5flagsB7v160006Ev, symObjAddr: 0x2440, symBinAddr: 0x100004050, symSize: 0x18 }
  - { offsetInCU: 0xEBEE, offset: 0xEBEE, size: 0x8, addend: 0x0, symName: __ZNKSt3__19basic_iosIcNS_11char_traitsIcEEE4fillB7v160006Ev, symObjAddr: 0x2458, symBinAddr: 0x100004068, symSize: 0x64 }
  - { offsetInCU: 0xEC16, offset: 0xEC16, size: 0x8, addend: 0x0, symName: __ZNKSt3__119ostreambuf_iteratorIcNS_11char_traitsIcEEE6failedB7v160006Ev, symObjAddr: 0x24BC, symBinAddr: 0x1000040CC, symSize: 0x24 }
  - { offsetInCU: 0xEC3C, offset: 0xEC3C, size: 0x8, addend: 0x0, symName: __ZNSt3__19basic_iosIcNS_11char_traitsIcEEE8setstateB7v160006Ej, symObjAddr: 0x24E0, symBinAddr: 0x1000040F0, symSize: 0x2C }
  - { offsetInCU: 0xEC71, offset: 0xEC71, size: 0x8, addend: 0x0, symName: __ZNKSt3__18ios_base5widthB7v160006Ev, symObjAddr: 0x250C, symBinAddr: 0x10000411C, symSize: 0x18 }
  - { offsetInCU: 0xEC99, offset: 0xEC99, size: 0x8, addend: 0x0, symName: __ZNSt3__115basic_streambufIcNS_11char_traitsIcEEE5sputnB7v160006EPKcl, symObjAddr: 0x2524, symBinAddr: 0x100004134, symSize: 0x3C }
  - { offsetInCU: 0xECDB, offset: 0xECDB, size: 0x8, addend: 0x0, symName: __ZNSt3__112basic_stringIcNS_11char_traitsIcEENS_9allocatorIcEEEC1B7v160006Emc, symObjAddr: 0x2560, symBinAddr: 0x100004170, symSize: 0x3C }
  - { offsetInCU: 0xED23, offset: 0xED23, size: 0x8, addend: 0x0, symName: __ZNSt3__112basic_stringIcNS_11char_traitsIcEENS_9allocatorIcEEE4dataB7v160006Ev, symObjAddr: 0x259C, symBinAddr: 0x1000041AC, symSize: 0x28 }
  - { offsetInCU: 0xED49, offset: 0xED49, size: 0x8, addend: 0x0, symName: __ZNSt3__18ios_base5widthB7v160006El, symObjAddr: 0x25C4, symBinAddr: 0x1000041D4, symSize: 0x2C }
  - { offsetInCU: 0xED8F, offset: 0xED8F, size: 0x8, addend: 0x0, symName: __ZNSt3__112basic_stringIcNS_11char_traitsIcEENS_9allocatorIcEEEC2B7v160006Emc, symObjAddr: 0x25F0, symBinAddr: 0x100004200, symSize: 0x54 }
  - { offsetInCU: 0xEDD7, offset: 0xEDD7, size: 0x8, addend: 0x0, symName: __ZNSt3__117__compressed_pairINS_12basic_stringIcNS_11char_traitsIcEENS_9allocatorIcEEE5__repES5_EC1B7v160006INS_18__default_init_tagESA_EEOT_OT0_, symObjAddr: 0x2644, symBinAddr: 0x100004254, symSize: 0x3C }
  - { offsetInCU: 0xEE2F, offset: 0xEE2F, size: 0x8, addend: 0x0, symName: __ZNSt3__117__compressed_pairINS_12basic_stringIcNS_11char_traitsIcEENS_9allocatorIcEEE5__repES5_EC2B7v160006INS_18__default_init_tagESA_EEOT_OT0_, symObjAddr: 0x2690, symBinAddr: 0x1000042A0, symSize: 0x3C }
  - { offsetInCU: 0xEE87, offset: 0xEE87, size: 0x8, addend: 0x0, symName: __ZNSt3__122__compressed_pair_elemINS_12basic_stringIcNS_11char_traitsIcEENS_9allocatorIcEEE5__repELi0ELb0EEC2B7v160006ENS_18__default_init_tagE, symObjAddr: 0x26CC, symBinAddr: 0x1000042DC, symSize: 0x14 }
  - { offsetInCU: 0xEEBC, offset: 0xEEBC, size: 0x8, addend: 0x0, symName: __ZNSt3__122__compressed_pair_elemINS_9allocatorIcEELi1ELb1EEC2B7v160006ENS_18__default_init_tagE, symObjAddr: 0x26E0, symBinAddr: 0x1000042F0, symSize: 0x2C }
  - { offsetInCU: 0xEEF1, offset: 0xEEF1, size: 0x8, addend: 0x0, symName: __ZNSt3__19allocatorIcEC2B7v160006Ev, symObjAddr: 0x270C, symBinAddr: 0x10000431C, symSize: 0x2C }
  - { offsetInCU: 0xEF1B, offset: 0xEF1B, size: 0x8, addend: 0x0, symName: __ZNSt3__116__non_trivial_ifILb1ENS_9allocatorIcEEEC2B7v160006Ev, symObjAddr: 0x2738, symBinAddr: 0x100004348, symSize: 0x14 }
  - { offsetInCU: 0xEF45, offset: 0xEF45, size: 0x8, addend: 0x0, symName: __ZNSt3__112basic_stringIcNS_11char_traitsIcEENS_9allocatorIcEEE13__get_pointerB7v160006Ev, symObjAddr: 0x2760, symBinAddr: 0x100004370, symSize: 0x54 }
  - { offsetInCU: 0xEF6B, offset: 0xEF6B, size: 0x8, addend: 0x0, symName: __ZNKSt3__112basic_stringIcNS_11char_traitsIcEENS_9allocatorIcEEE9__is_longB7v160006Ev, symObjAddr: 0x27B4, symBinAddr: 0x1000043C4, symSize: 0x38 }
  - { offsetInCU: 0xEF91, offset: 0xEF91, size: 0x8, addend: 0x0, symName: __ZNSt3__112basic_stringIcNS_11char_traitsIcEENS_9allocatorIcEEE18__get_long_pointerB7v160006Ev, symObjAddr: 0x27EC, symBinAddr: 0x1000043FC, symSize: 0x28 }
  - { offsetInCU: 0xEFB7, offset: 0xEFB7, size: 0x8, addend: 0x0, symName: __ZNSt3__112basic_stringIcNS_11char_traitsIcEENS_9allocatorIcEEE19__get_short_pointerB7v160006Ev, symObjAddr: 0x2814, symBinAddr: 0x100004424, symSize: 0x28 }
  - { offsetInCU: 0xEFDD, offset: 0xEFDD, size: 0x8, addend: 0x0, symName: __ZNKSt3__117__compressed_pairINS_12basic_stringIcNS_11char_traitsIcEENS_9allocatorIcEEE5__repES5_E5firstB7v160006Ev, symObjAddr: 0x283C, symBinAddr: 0x10000444C, symSize: 0x24 }
  - { offsetInCU: 0xF003, offset: 0xF003, size: 0x8, addend: 0x0, symName: __ZNKSt3__122__compressed_pair_elemINS_12basic_stringIcNS_11char_traitsIcEENS_9allocatorIcEEE5__repELi0ELb0EE5__getB7v160006Ev, symObjAddr: 0x2860, symBinAddr: 0x100004470, symSize: 0x14 }
  - { offsetInCU: 0xF029, offset: 0xF029, size: 0x8, addend: 0x0, symName: __ZNSt3__117__compressed_pairINS_12basic_stringIcNS_11char_traitsIcEENS_9allocatorIcEEE5__repES5_E5firstB7v160006Ev, symObjAddr: 0x2874, symBinAddr: 0x100004484, symSize: 0x24 }
  - { offsetInCU: 0xF04F, offset: 0xF04F, size: 0x8, addend: 0x0, symName: __ZNSt3__122__compressed_pair_elemINS_12basic_stringIcNS_11char_traitsIcEENS_9allocatorIcEEE5__repELi0ELb0EE5__getB7v160006Ev, symObjAddr: 0x2898, symBinAddr: 0x1000044A8, symSize: 0x14 }
  - { offsetInCU: 0xF075, offset: 0xF075, size: 0x8, addend: 0x0, symName: __ZNSt3__114pointer_traitsIPcE10pointer_toB7v160006ERc, symObjAddr: 0x28AC, symBinAddr: 0x1000044BC, symSize: 0x14 }
  - { offsetInCU: 0xF098, offset: 0xF098, size: 0x8, addend: 0x0, symName: __ZNSt3__119ostreambuf_iteratorIcNS_11char_traitsIcEEEC2B7v160006ERNS_13basic_ostreamIcS2_EE, symObjAddr: 0x28C0, symBinAddr: 0x1000044D0, symSize: 0x54 }
  - { offsetInCU: 0xF0D0, offset: 0xF0D0, size: 0x8, addend: 0x0, symName: __ZNKSt3__19basic_iosIcNS_11char_traitsIcEEE5rdbufB7v160006Ev, symObjAddr: 0x2914, symBinAddr: 0x100004524, symSize: 0x24 }
  - { offsetInCU: 0xF0F8, offset: 0xF0F8, size: 0x8, addend: 0x0, symName: __ZNKSt3__18ios_base5rdbufB7v160006Ev, symObjAddr: 0x2938, symBinAddr: 0x100004548, symSize: 0x18 }
  - { offsetInCU: 0xF11E, offset: 0xF11E, size: 0x8, addend: 0x0, symName: __ZNSt3__111char_traitsIcE11eq_int_typeEii, symObjAddr: 0x2950, symBinAddr: 0x100004560, symSize: 0x28 }
  - { offsetInCU: 0xF14F, offset: 0xF14F, size: 0x8, addend: 0x0, symName: __ZNSt3__111char_traitsIcE3eofEv, symObjAddr: 0x2978, symBinAddr: 0x100004588, symSize: 0x8 }
  - { offsetInCU: 0xF163, offset: 0xF163, size: 0x8, addend: 0x0, symName: __ZNKSt3__19basic_iosIcNS_11char_traitsIcEEE5widenB7v160006Ec, symObjAddr: 0x2980, symBinAddr: 0x100004590, symSize: 0x84 }
  - { offsetInCU: 0xF1D1, offset: 0xF1D1, size: 0x8, addend: 0x0, symName: __ZNKSt3__15ctypeIcE5widenB7v160006Ec, symObjAddr: 0x2A30, symBinAddr: 0x100004640, symSize: 0x38 }
  - { offsetInCU: 0xF206, offset: 0xF206, size: 0x8, addend: 0x0, symName: __ZNSt3__18ios_base8setstateB7v160006Ej, symObjAddr: 0x2A68, symBinAddr: 0x100004678, symSize: 0x34 }
  - { offsetInCU: 0xF23D, offset: 0xF23D, size: 0x8, addend: 0x0, symName: __ZNSt3__16vectorIiNS_9allocatorIiEEEC2ERKS3_, symObjAddr: 0x2AC0, symBinAddr: 0x1000046D0, symSize: 0x110 }
  - { offsetInCU: 0xF29C, offset: 0xF29C, size: 0x8, addend: 0x0, symName: __ZNSt3__116allocator_traitsINS_9allocatorIiEEE37select_on_container_copy_constructionB7v160006IS2_vvEES2_RKS2_, symObjAddr: 0x2BD0, symBinAddr: 0x1000047E0, symSize: 0x10 }
  - { offsetInCU: 0xF2D0, offset: 0xF2D0, size: 0x8, addend: 0x0, symName: __ZNSt3__117__compressed_pairIPiNS_9allocatorIiEEEC1B7v160006IDnS3_EEOT_OT0_, symObjAddr: 0x2BE0, symBinAddr: 0x1000047F0, symSize: 0x3C }
  - { offsetInCU: 0xF328, offset: 0xF328, size: 0x8, addend: 0x0, symName: __ZNSt3__16vectorIiNS_9allocatorIiEEE18__construct_at_endIPiLi0EEEvT_S6_m, symObjAddr: 0x2C1C, symBinAddr: 0x10000482C, symSize: 0x8C }
  - { offsetInCU: 0xF39B, offset: 0xF39B, size: 0x8, addend: 0x0, symName: __ZNSt3__117__compressed_pairIPiNS_9allocatorIiEEEC2B7v160006IDnS3_EEOT_OT0_, symObjAddr: 0x2CA8, symBinAddr: 0x1000048B8, symSize: 0x44 }
  - { offsetInCU: 0xF3F3, offset: 0xF3F3, size: 0x8, addend: 0x0, symName: __ZNSt3__122__compressed_pair_elemINS_9allocatorIiEELi1ELb1EEC2B7v160006IS2_vEEOT_, symObjAddr: 0x2CEC, symBinAddr: 0x1000048FC, symSize: 0x18 }
  - { offsetInCU: 0xF435, offset: 0xF435, size: 0x8, addend: 0x0, symName: __ZNSt3__129_AllocatorDestroyRangeReverseINS_9allocatorIiEEPiEC1B7v160006ERS2_RS3_S6_, symObjAddr: 0x2E44, symBinAddr: 0x100004A54, symSize: 0x44 }
  - { offsetInCU: 0xF48C, offset: 0xF48C, size: 0x8, addend: 0x0, symName: __ZNSt3__116allocator_traitsINS_9allocatorIiEEE9constructB7v160006IiJRiEvEEvRS2_PT_DpOT0_, symObjAddr: 0x2E88, symBinAddr: 0x100004A98, symSize: 0x34 }
  - { offsetInCU: 0xF4E3, offset: 0xF4E3, size: 0x8, addend: 0x0, symName: __ZNSt3__128__exception_guard_exceptionsINS_29_AllocatorDestroyRangeReverseINS_9allocatorIiEEPiEEE10__completeB7v160006Ev, symObjAddr: 0x2EBC, symBinAddr: 0x100004ACC, symSize: 0x1C }
  - { offsetInCU: 0xF509, offset: 0xF509, size: 0x8, addend: 0x0, symName: __ZNSt3__128__exception_guard_exceptionsINS_29_AllocatorDestroyRangeReverseINS_9allocatorIiEEPiEEED1B7v160006Ev, symObjAddr: 0x2ED8, symBinAddr: 0x100004AE8, symSize: 0x2C }
  - { offsetInCU: 0xF533, offset: 0xF533, size: 0x8, addend: 0x0, symName: __ZNSt3__128__exception_guard_exceptionsINS_29_AllocatorDestroyRangeReverseINS_9allocatorIiEEPiEEEC1B7v160006ES5_, symObjAddr: 0x2F04, symBinAddr: 0x100004B14, symSize: 0x34 }
  - { offsetInCU: 0xF56C, offset: 0xF56C, size: 0x8, addend: 0x0, symName: __ZNSt3__128__exception_guard_exceptionsINS_29_AllocatorDestroyRangeReverseINS_9allocatorIiEEPiEEEC2B7v160006ES5_, symObjAddr: 0x2F38, symBinAddr: 0x100004B48, symSize: 0x30 }
  - { offsetInCU: 0xF5A5, offset: 0xF5A5, size: 0x8, addend: 0x0, symName: __ZNSt3__129_AllocatorDestroyRangeReverseINS_9allocatorIiEEPiEC2B7v160006ERS2_RS3_S6_, symObjAddr: 0x2F68, symBinAddr: 0x100004B78, symSize: 0x38 }
  - { offsetInCU: 0xF5FC, offset: 0xF5FC, size: 0x8, addend: 0x0, symName: __ZNSt3__19allocatorIiE9constructB7v160006IiJRiEEEvPT_DpOT0_, symObjAddr: 0x2FA0, symBinAddr: 0x100004BB0, symSize: 0x28 }
  - { offsetInCU: 0xF652, offset: 0xF652, size: 0x8, addend: 0x0, symName: __ZNSt3__128__exception_guard_exceptionsINS_29_AllocatorDestroyRangeReverseINS_9allocatorIiEEPiEEED2B7v160006Ev, symObjAddr: 0x2FC8, symBinAddr: 0x100004BD8, symSize: 0x50 }
  - { offsetInCU: 0xF67C, offset: 0xF67C, size: 0x8, addend: 0x0, symName: __ZNKSt3__129_AllocatorDestroyRangeReverseINS_9allocatorIiEEPiEclB7v160006Ev, symObjAddr: 0x3018, symBinAddr: 0x100004C28, symSize: 0x68 }
  - { offsetInCU: 0xF6A2, offset: 0xF6A2, size: 0x8, addend: 0x0, symName: __ZNSt3__116reverse_iteratorIPiEC1B7v160006ES1_, symObjAddr: 0x30F0, symBinAddr: 0x100004D00, symSize: 0x34 }
  - { offsetInCU: 0xF6DA, offset: 0xF6DA, size: 0x8, addend: 0x0, symName: __ZNSt3__116reverse_iteratorIPiEppB7v160006Ev, symObjAddr: 0x3190, symBinAddr: 0x100004DA0, symSize: 0x20 }
  - { offsetInCU: 0xF700, offset: 0xF700, size: 0x8, addend: 0x0, symName: __ZNKSt3__116reverse_iteratorIPiE4baseB7v160006Ev, symObjAddr: 0x31B0, symBinAddr: 0x100004DC0, symSize: 0x18 }
  - { offsetInCU: 0xF72B, offset: 0xF72B, size: 0x8, addend: 0x0, symName: __ZNSt3__119__to_address_helperINS_16reverse_iteratorIPiEEvE6__callB7v160006ERKS3_, symObjAddr: 0x31C8, symBinAddr: 0x100004DD8, symSize: 0x38 }
  - { offsetInCU: 0xF74E, offset: 0xF74E, size: 0x8, addend: 0x0, symName: __ZNKSt3__116reverse_iteratorIPiEptB7v160006Ev, symObjAddr: 0x3200, symBinAddr: 0x100004E10, symSize: 0x24 }
  - { offsetInCU: 0xF774, offset: 0xF774, size: 0x8, addend: 0x0, symName: __ZNKSt3__116reverse_iteratorIPiEdeB7v160006Ev, symObjAddr: 0x3224, symBinAddr: 0x100004E34, symSize: 0x28 }
  - { offsetInCU: 0xF7A8, offset: 0xF7A8, size: 0x8, addend: 0x0, symName: __ZNSt3__116reverse_iteratorIPiEC2B7v160006ES1_, symObjAddr: 0x324C, symBinAddr: 0x100004E5C, symSize: 0x28 }
  - { offsetInCU: 0xF7E0, offset: 0xF7E0, size: 0x8, addend: 0x0, symName: __ZNSt3__16vectorIiNS_9allocatorIiEEE11__make_iterB7v160006EPi, symObjAddr: 0x3274, symBinAddr: 0x100004E84, symSize: 0x34 }
  - { offsetInCU: 0xF815, offset: 0xF815, size: 0x8, addend: 0x0, symName: __ZNSt3__111__wrap_iterIPiEC1B7v160006EPKvS1_, symObjAddr: 0x32A8, symBinAddr: 0x100004EB8, symSize: 0x3C }
  - { offsetInCU: 0xF85B, offset: 0xF85B, size: 0x8, addend: 0x0, symName: __ZNSt3__111__wrap_iterIPiEC2B7v160006EPKvS1_, symObjAddr: 0x32E4, symBinAddr: 0x100004EF4, symSize: 0x24 }
  - { offsetInCU: 0xF8A1, offset: 0xF8A1, size: 0x8, addend: 0x0, symName: __ZNSt3__113unordered_setIiNS_4hashIiEENS_8equal_toIiEENS_9allocatorIiEEEC2INS_11__wrap_iterIPiEEEET_SC_, symObjAddr: 0x3308, symBinAddr: 0x100004F18, symSize: 0x88 }
  - { offsetInCU: 0xF8F4, offset: 0xF8F4, size: 0x8, addend: 0x0, symName: __ZNSt3__112__hash_tableIiNS_4hashIiEENS_8equal_toIiEENS_9allocatorIiEEEC1Ev, symObjAddr: 0x3390, symBinAddr: 0x100004FA0, symSize: 0x2C }
  - { offsetInCU: 0xF920, offset: 0xF920, size: 0x8, addend: 0x0, symName: __ZNSt3__113unordered_setIiNS_4hashIiEENS_8equal_toIiEENS_9allocatorIiEEE6insertINS_11__wrap_iterIPiEEEEvT_SC_, symObjAddr: 0x33CC, symBinAddr: 0x100004FDC, symSize: 0x70 }
  - { offsetInCU: 0xF96F, offset: 0xF96F, size: 0x8, addend: 0x0, symName: __ZNSt3__112__hash_tableIiNS_4hashIiEENS_8equal_toIiEENS_9allocatorIiEEED1Ev, symObjAddr: 0x343C, symBinAddr: 0x10000504C, symSize: 0x2C }
  - { offsetInCU: 0xF99B, offset: 0xF99B, size: 0x8, addend: 0x0, symName: __ZNSt3__112__hash_tableIiNS_4hashIiEENS_8equal_toIiEENS_9allocatorIiEEEC2Ev, symObjAddr: 0x3468, symBinAddr: 0x100005078, symSize: 0x7C }
  - { offsetInCU: 0xF9C7, offset: 0xF9C7, size: 0x8, addend: 0x0, symName: __ZNSt3__110unique_ptrIA_PNS_16__hash_node_baseIPNS_11__hash_nodeIiPvEEEENS_25__bucket_list_deallocatorINS_9allocatorIS7_EEEEEC1B7v160006ILb1EvEEv, symObjAddr: 0x34E4, symBinAddr: 0x1000050F4, symSize: 0x2C }
  - { offsetInCU: 0xF9FC, offset: 0xF9FC, size: 0x8, addend: 0x0, symName: __ZNSt3__117__compressed_pairINS_16__hash_node_baseIPNS_11__hash_nodeIiPvEEEENS_9allocatorIS4_EEEC1B7v160006ILb1EvEEv, symObjAddr: 0x3510, symBinAddr: 0x100005120, symSize: 0x2C }
  - { offsetInCU: 0xFA36, offset: 0xFA36, size: 0x8, addend: 0x0, symName: __ZNSt3__117__compressed_pairImNS_4hashIiEEEC1B7v160006IiNS_18__default_init_tagEEEOT_OT0_, symObjAddr: 0x353C, symBinAddr: 0x10000514C, symSize: 0x3C }
  - { offsetInCU: 0xFA93, offset: 0xFA93, size: 0x8, addend: 0x0, symName: __ZNSt3__117__compressed_pairIfNS_8equal_toIiEEEC1B7v160006IfNS_18__default_init_tagEEEOT_OT0_, symObjAddr: 0x3578, symBinAddr: 0x100005188, symSize: 0x3C }
  - { offsetInCU: 0xFAEB, offset: 0xFAEB, size: 0x8, addend: 0x0, symName: __ZNSt3__110unique_ptrIA_PNS_16__hash_node_baseIPNS_11__hash_nodeIiPvEEEENS_25__bucket_list_deallocatorINS_9allocatorIS7_EEEEEC2B7v160006ILb1EvEEv, symObjAddr: 0x35B4, symBinAddr: 0x1000051C4, symSize: 0x3C }
  - { offsetInCU: 0xFB25, offset: 0xFB25, size: 0x8, addend: 0x0, symName: __ZNSt3__117__compressed_pairIPPNS_16__hash_node_baseIPNS_11__hash_nodeIiPvEEEENS_25__bucket_list_deallocatorINS_9allocatorIS7_EEEEEC1B7v160006INS_16__value_init_tagESF_EEOT_OT0_, symObjAddr: 0x35F0, symBinAddr: 0x100005200, symSize: 0x3C }
  - { offsetInCU: 0xFB7D, offset: 0xFB7D, size: 0x8, addend: 0x0, symName: __ZNSt3__117__compressed_pairIPPNS_16__hash_node_baseIPNS_11__hash_nodeIiPvEEEENS_25__bucket_list_deallocatorINS_9allocatorIS7_EEEEEC2B7v160006INS_16__value_init_tagESF_EEOT_OT0_, symObjAddr: 0x362C, symBinAddr: 0x10000523C, symSize: 0x40 }
  - { offsetInCU: 0xFBD5, offset: 0xFBD5, size: 0x8, addend: 0x0, symName: __ZNSt3__122__compressed_pair_elemIPPNS_16__hash_node_baseIPNS_11__hash_nodeIiPvEEEELi0ELb0EEC2B7v160006ENS_16__value_init_tagE, symObjAddr: 0x366C, symBinAddr: 0x10000527C, symSize: 0x18 }
  - { offsetInCU: 0xFC0A, offset: 0xFC0A, size: 0x8, addend: 0x0, symName: __ZNSt3__122__compressed_pair_elemINS_25__bucket_list_deallocatorINS_9allocatorIPNS_16__hash_node_baseIPNS_11__hash_nodeIiPvEEEEEEEELi1ELb0EEC2B7v160006ENS_16__value_init_tagE, symObjAddr: 0x3684, symBinAddr: 0x100005294, symSize: 0x2C }
  - { offsetInCU: 0xFC3F, offset: 0xFC3F, size: 0x8, addend: 0x0, symName: __ZNSt3__125__bucket_list_deallocatorINS_9allocatorIPNS_16__hash_node_baseIPNS_11__hash_nodeIiPvEEEEEEEC1B7v160006Ev, symObjAddr: 0x36B0, symBinAddr: 0x1000052C0, symSize: 0x2C }
  - { offsetInCU: 0xFC69, offset: 0xFC69, size: 0x8, addend: 0x0, symName: __ZNSt3__125__bucket_list_deallocatorINS_9allocatorIPNS_16__hash_node_baseIPNS_11__hash_nodeIiPvEEEEEEEC2B7v160006Ev, symObjAddr: 0x36DC, symBinAddr: 0x1000052EC, symSize: 0x40 }
  - { offsetInCU: 0xFC93, offset: 0xFC93, size: 0x8, addend: 0x0, symName: __ZNSt3__117__compressed_pairImNS_9allocatorIPNS_16__hash_node_baseIPNS_11__hash_nodeIiPvEEEEEEEC1B7v160006IiNS_18__default_init_tagEEEOT_OT0_, symObjAddr: 0x371C, symBinAddr: 0x10000532C, symSize: 0x3C }
  - { offsetInCU: 0xFCEB, offset: 0xFCEB, size: 0x8, addend: 0x0, symName: __ZNSt3__117__compressed_pairImNS_9allocatorIPNS_16__hash_node_baseIPNS_11__hash_nodeIiPvEEEEEEEC2B7v160006IiNS_18__default_init_tagEEEOT_OT0_, symObjAddr: 0x3758, symBinAddr: 0x100005368, symSize: 0x40 }
  - { offsetInCU: 0xFD43, offset: 0xFD43, size: 0x8, addend: 0x0, symName: __ZNSt3__122__compressed_pair_elemImLi0ELb0EEC2B7v160006IivEEOT_, symObjAddr: 0x3798, symBinAddr: 0x1000053A8, symSize: 0x24 }
  - { offsetInCU: 0xFD85, offset: 0xFD85, size: 0x8, addend: 0x0, symName: __ZNSt3__122__compressed_pair_elemINS_9allocatorIPNS_16__hash_node_baseIPNS_11__hash_nodeIiPvEEEEEELi1ELb1EEC2B7v160006ENS_18__default_init_tagE, symObjAddr: 0x37BC, symBinAddr: 0x1000053CC, symSize: 0x2C }
  - { offsetInCU: 0xFDBA, offset: 0xFDBA, size: 0x8, addend: 0x0, symName: __ZNSt3__19allocatorIPNS_16__hash_node_baseIPNS_11__hash_nodeIiPvEEEEEC2B7v160006Ev, symObjAddr: 0x37E8, symBinAddr: 0x1000053F8, symSize: 0x2C }
  - { offsetInCU: 0xFDE4, offset: 0xFDE4, size: 0x8, addend: 0x0, symName: __ZNSt3__116__non_trivial_ifILb1ENS_9allocatorIPNS_16__hash_node_baseIPNS_11__hash_nodeIiPvEEEEEEEC2B7v160006Ev, symObjAddr: 0x3814, symBinAddr: 0x100005424, symSize: 0x14 }
  - { offsetInCU: 0xFE0E, offset: 0xFE0E, size: 0x8, addend: 0x0, symName: __ZNSt3__117__compressed_pairINS_16__hash_node_baseIPNS_11__hash_nodeIiPvEEEENS_9allocatorIS4_EEEC2B7v160006ILb1EvEEv, symObjAddr: 0x3828, symBinAddr: 0x100005438, symSize: 0x34 }
  - { offsetInCU: 0xFE43, offset: 0xFE43, size: 0x8, addend: 0x0, symName: __ZNSt3__122__compressed_pair_elemINS_16__hash_node_baseIPNS_11__hash_nodeIiPvEEEELi0ELb0EEC2B7v160006ENS_16__value_init_tagE, symObjAddr: 0x385C, symBinAddr: 0x10000546C, symSize: 0x2C }
  - { offsetInCU: 0xFE78, offset: 0xFE78, size: 0x8, addend: 0x0, symName: __ZNSt3__122__compressed_pair_elemINS_9allocatorINS_11__hash_nodeIiPvEEEELi1ELb1EEC2B7v160006ENS_16__value_init_tagE, symObjAddr: 0x3888, symBinAddr: 0x100005498, symSize: 0x2C }
  - { offsetInCU: 0xFEAD, offset: 0xFEAD, size: 0x8, addend: 0x0, symName: __ZNSt3__116__hash_node_baseIPNS_11__hash_nodeIiPvEEEC1B7v160006Ev, symObjAddr: 0x38B4, symBinAddr: 0x1000054C4, symSize: 0x2C }
  - { offsetInCU: 0xFED7, offset: 0xFED7, size: 0x8, addend: 0x0, symName: __ZNSt3__116__hash_node_baseIPNS_11__hash_nodeIiPvEEEC2B7v160006Ev, symObjAddr: 0x38E0, symBinAddr: 0x1000054F0, symSize: 0x18 }
  - { offsetInCU: 0xFF01, offset: 0xFF01, size: 0x8, addend: 0x0, symName: __ZNSt3__19allocatorINS_11__hash_nodeIiPvEEEC2B7v160006Ev, symObjAddr: 0x38F8, symBinAddr: 0x100005508, symSize: 0x2C }
  - { offsetInCU: 0xFF2B, offset: 0xFF2B, size: 0x8, addend: 0x0, symName: __ZNSt3__116__non_trivial_ifILb1ENS_9allocatorINS_11__hash_nodeIiPvEEEEEC2B7v160006Ev, symObjAddr: 0x3924, symBinAddr: 0x100005534, symSize: 0x14 }
  - { offsetInCU: 0xFF55, offset: 0xFF55, size: 0x8, addend: 0x0, symName: __ZNSt3__117__compressed_pairImNS_4hashIiEEEC2B7v160006IiNS_18__default_init_tagEEEOT_OT0_, symObjAddr: 0x3938, symBinAddr: 0x100005548, symSize: 0x40 }
  - { offsetInCU: 0xFFAD, offset: 0xFFAD, size: 0x8, addend: 0x0, symName: __ZNSt3__122__compressed_pair_elemINS_4hashIiEELi1ELb1EEC2B7v160006ENS_18__default_init_tagE, symObjAddr: 0x3978, symBinAddr: 0x100005588, symSize: 0x14 }
  - { offsetInCU: 0xFFE2, offset: 0xFFE2, size: 0x8, addend: 0x0, symName: __ZNSt3__117__compressed_pairIfNS_8equal_toIiEEEC2B7v160006IfNS_18__default_init_tagEEEOT_OT0_, symObjAddr: 0x398C, symBinAddr: 0x10000559C, symSize: 0x40 }
  - { offsetInCU: 0x1003A, offset: 0x1003A, size: 0x8, addend: 0x0, symName: __ZNSt3__122__compressed_pair_elemIfLi0ELb0EEC2B7v160006IfvEEOT_, symObjAddr: 0x39CC, symBinAddr: 0x1000055DC, symSize: 0x24 }
  - { offsetInCU: 0x1007C, offset: 0x1007C, size: 0x8, addend: 0x0, symName: __ZNSt3__122__compressed_pair_elemINS_8equal_toIiEELi1ELb1EEC2B7v160006ENS_18__default_init_tagE, symObjAddr: 0x39F0, symBinAddr: 0x100005600, symSize: 0x14 }
  - { offsetInCU: 0x100B1, offset: 0x100B1, size: 0x8, addend: 0x0, symName: __ZNSt3__112__hash_tableIiNS_4hashIiEENS_8equal_toIiEENS_9allocatorIiEEE15__insert_uniqueB7v160006ERKi, symObjAddr: 0x3A04, symBinAddr: 0x100005614, symSize: 0x50 }
  - { offsetInCU: 0x100E6, offset: 0x100E6, size: 0x8, addend: 0x0, symName: __ZNSt3__112__hash_tableIiNS_4hashIiEENS_8equal_toIiEENS_9allocatorIiEEE25__emplace_unique_key_argsIiJRKiEEENS_4pairINS_15__hash_iteratorIPNS_11__hash_nodeIiPvEEEEbEERKT_DpOT0_, symObjAddr: 0x3A54, symBinAddr: 0x100005664, symSize: 0x4C4 }
  - { offsetInCU: 0x101C6, offset: 0x101C6, size: 0x8, addend: 0x0, symName: __ZNSt3__122__hash_key_value_typesIiE9__get_keyB7v160006ERKi, symObjAddr: 0x3F18, symBinAddr: 0x100005B28, symSize: 0x14 }
  - { offsetInCU: 0x101E9, offset: 0x101E9, size: 0x8, addend: 0x0, symName: __ZNSt3__112__hash_tableIiNS_4hashIiEENS_8equal_toIiEENS_9allocatorIiEEE13hash_functionB7v160006Ev, symObjAddr: 0x3F2C, symBinAddr: 0x100005B3C, symSize: 0x28 }
  - { offsetInCU: 0x1020F, offset: 0x1020F, size: 0x8, addend: 0x0, symName: __ZNKSt3__14hashIiEclB7v160006Ei, symObjAddr: 0x3F54, symBinAddr: 0x100005B64, symSize: 0x18 }
  - { offsetInCU: 0x10244, offset: 0x10244, size: 0x8, addend: 0x0, symName: __ZNKSt3__112__hash_tableIiNS_4hashIiEENS_8equal_toIiEENS_9allocatorIiEEE12bucket_countB7v160006Ev, symObjAddr: 0x3F6C, symBinAddr: 0x100005B7C, symSize: 0x28 }
  - { offsetInCU: 0x1026A, offset: 0x1026A, size: 0x8, addend: 0x0, symName: __ZNKSt3__110unique_ptrIA_PNS_16__hash_node_baseIPNS_11__hash_nodeIiPvEEEENS_25__bucket_list_deallocatorINS_9allocatorIS7_EEEEEixB7v160006Em, symObjAddr: 0x402C, symBinAddr: 0x100005C3C, symSize: 0x34 }
  - { offsetInCU: 0x1029F, offset: 0x1029F, size: 0x8, addend: 0x0, symName: __ZNKSt3__116__hash_node_baseIPNS_11__hash_nodeIiPvEEE6__hashB7v160006Ev, symObjAddr: 0x4060, symBinAddr: 0x100005C70, symSize: 0x18 }
  - { offsetInCU: 0x102C5, offset: 0x102C5, size: 0x8, addend: 0x0, symName: __ZNSt3__112__hash_tableIiNS_4hashIiEENS_8equal_toIiEENS_9allocatorIiEEE6key_eqB7v160006Ev, symObjAddr: 0x4078, symBinAddr: 0x100005C88, symSize: 0x28 }
  - { offsetInCU: 0x102EB, offset: 0x102EB, size: 0x8, addend: 0x0, symName: __ZNKSt3__18equal_toIiEclB7v160006ERKiS3_, symObjAddr: 0x40A0, symBinAddr: 0x100005CB0, symSize: 0x34 }
  - { offsetInCU: 0x1032F, offset: 0x1032F, size: 0x8, addend: 0x0, symName: __ZNSt3__116__hash_node_baseIPNS_11__hash_nodeIiPvEEE8__upcastB7v160006Ev, symObjAddr: 0x40D4, symBinAddr: 0x100005CE4, symSize: 0x24 }
  - { offsetInCU: 0x10355, offset: 0x10355, size: 0x8, addend: 0x0, symName: __ZNSt3__112__hash_tableIiNS_4hashIiEENS_8equal_toIiEENS_9allocatorIiEEE21__construct_node_hashIRKiJEEENS_10unique_ptrINS_11__hash_nodeIiPvEENS_22__hash_node_destructorINS5_ISE_EEEEEEmOT_DpOT0_, symObjAddr: 0x40F8, symBinAddr: 0x100005D08, symSize: 0x140 }
  - { offsetInCU: 0x103C8, offset: 0x103C8, size: 0x8, addend: 0x0, symName: __ZNSt3__112__hash_tableIiNS_4hashIiEENS_8equal_toIiEENS_9allocatorIiEEE4sizeB7v160006Ev, symObjAddr: 0x4238, symBinAddr: 0x100005E48, symSize: 0x28 }
  - { offsetInCU: 0x103EE, offset: 0x103EE, size: 0x8, addend: 0x0, symName: __ZNSt3__112__hash_tableIiNS_4hashIiEENS_8equal_toIiEENS_9allocatorIiEEE15max_load_factorB7v160006Ev, symObjAddr: 0x4260, symBinAddr: 0x100005E70, symSize: 0x28 }
  - { offsetInCU: 0x10414, offset: 0x10414, size: 0x8, addend: 0x0, symName: __ZNSt3__112__hash_tableIiNS_4hashIiEENS_8equal_toIiEENS_9allocatorIiEEE15__rehash_uniqueB7v160006Em, symObjAddr: 0x4288, symBinAddr: 0x100005E98, symSize: 0x2C }
  - { offsetInCU: 0x10448, offset: 0x10448, size: 0x8, addend: 0x0, symName: __Z4ceilB7v160006f, symObjAddr: 0x4330, symBinAddr: 0x100005F40, symSize: 0x18 }
  - { offsetInCU: 0x10477, offset: 0x10477, size: 0x8, addend: 0x0, symName: __ZNSt3__117__compressed_pairINS_16__hash_node_baseIPNS_11__hash_nodeIiPvEEEENS_9allocatorIS4_EEE5firstB7v160006Ev, symObjAddr: 0x4348, symBinAddr: 0x100005F58, symSize: 0x24 }
  - { offsetInCU: 0x1049D, offset: 0x1049D, size: 0x8, addend: 0x0, symName: __ZNSt3__116__hash_node_baseIPNS_11__hash_nodeIiPvEEE5__ptrB7v160006Ev, symObjAddr: 0x436C, symBinAddr: 0x100005F7C, symSize: 0x24 }
  - { offsetInCU: 0x104C3, offset: 0x104C3, size: 0x8, addend: 0x0, symName: __ZNKSt3__110unique_ptrINS_11__hash_nodeIiPvEENS_22__hash_node_destructorINS_9allocatorIS3_EEEEEptB7v160006Ev, symObjAddr: 0x4390, symBinAddr: 0x100005FA0, symSize: 0x28 }
  - { offsetInCU: 0x104E9, offset: 0x104E9, size: 0x8, addend: 0x0, symName: __ZNKSt3__110unique_ptrINS_11__hash_nodeIiPvEENS_22__hash_node_destructorINS_9allocatorIS3_EEEEE3getB7v160006Ev, symObjAddr: 0x43B8, symBinAddr: 0x100005FC8, symSize: 0x28 }
  - { offsetInCU: 0x1050F, offset: 0x1050F, size: 0x8, addend: 0x0, symName: __ZNSt3__110unique_ptrINS_11__hash_nodeIiPvEENS_22__hash_node_destructorINS_9allocatorIS3_EEEEE7releaseB7v160006Ev, symObjAddr: 0x43E0, symBinAddr: 0x100005FF0, symSize: 0x44 }
  - { offsetInCU: 0x10544, offset: 0x10544, size: 0x8, addend: 0x0, symName: __ZNSt3__110unique_ptrINS_11__hash_nodeIiPvEENS_22__hash_node_destructorINS_9allocatorIS3_EEEEED1B7v160006Ev, symObjAddr: 0x4424, symBinAddr: 0x100006034, symSize: 0x2C }
  - { offsetInCU: 0x1056E, offset: 0x1056E, size: 0x8, addend: 0x0, symName: __ZNSt3__115__hash_iteratorIPNS_11__hash_nodeIiPvEEEC1B7v160006EPNS_16__hash_node_baseIS4_EEPKv, symObjAddr: 0x4450, symBinAddr: 0x100006060, symSize: 0x3C }
  - { offsetInCU: 0x105C0, offset: 0x105C0, size: 0x8, addend: 0x0, symName: __ZNSt3__14pairINS_15__hash_iteratorIPNS_11__hash_nodeIiPvEEEEbEC1B7v160006IS6_RbLS3_0EEEOT_OT0_, symObjAddr: 0x448C, symBinAddr: 0x10000609C, symSize: 0x3C }
  - { offsetInCU: 0x1061E, offset: 0x1061E, size: 0x8, addend: 0x0, symName: __ZNSt3__117__compressed_pairImNS_4hashIiEEE6secondB7v160006Ev, symObjAddr: 0x44C8, symBinAddr: 0x1000060D8, symSize: 0x24 }
  - { offsetInCU: 0x10644, offset: 0x10644, size: 0x8, addend: 0x0, symName: __ZNSt3__122__compressed_pair_elemINS_4hashIiEELi1ELb1EE5__getB7v160006Ev, symObjAddr: 0x44EC, symBinAddr: 0x1000060FC, symSize: 0x14 }
  - { offsetInCU: 0x1066A, offset: 0x1066A, size: 0x8, addend: 0x0, symName: __ZNKSt3__110unique_ptrIA_PNS_16__hash_node_baseIPNS_11__hash_nodeIiPvEEEENS_25__bucket_list_deallocatorINS_9allocatorIS7_EEEEE11get_deleterB7v160006Ev, symObjAddr: 0x4500, symBinAddr: 0x100006110, symSize: 0x24 }
  - { offsetInCU: 0x10690, offset: 0x10690, size: 0x8, addend: 0x0, symName: __ZNKSt3__125__bucket_list_deallocatorINS_9allocatorIPNS_16__hash_node_baseIPNS_11__hash_nodeIiPvEEEEEEE4sizeB7v160006Ev, symObjAddr: 0x4524, symBinAddr: 0x100006134, symSize: 0x28 }
  - { offsetInCU: 0x106B6, offset: 0x106B6, size: 0x8, addend: 0x0, symName: __ZNKSt3__117__compressed_pairIPPNS_16__hash_node_baseIPNS_11__hash_nodeIiPvEEEENS_25__bucket_list_deallocatorINS_9allocatorIS7_EEEEE6secondB7v160006Ev, symObjAddr: 0x454C, symBinAddr: 0x10000615C, symSize: 0x28 }
  - { offsetInCU: 0x106DC, offset: 0x106DC, size: 0x8, addend: 0x0, symName: __ZNKSt3__122__compressed_pair_elemINS_25__bucket_list_deallocatorINS_9allocatorIPNS_16__hash_node_baseIPNS_11__hash_nodeIiPvEEEEEEEELi1ELb0EE5__getB7v160006Ev, symObjAddr: 0x4574, symBinAddr: 0x100006184, symSize: 0x14 }
  - { offsetInCU: 0x10702, offset: 0x10702, size: 0x8, addend: 0x0, symName: __ZNKSt3__117__compressed_pairImNS_9allocatorIPNS_16__hash_node_baseIPNS_11__hash_nodeIiPvEEEEEEE5firstB7v160006Ev, symObjAddr: 0x4588, symBinAddr: 0x100006198, symSize: 0x24 }
  - { offsetInCU: 0x10728, offset: 0x10728, size: 0x8, addend: 0x0, symName: __ZNKSt3__122__compressed_pair_elemImLi0ELb0EE5__getB7v160006Ev, symObjAddr: 0x45AC, symBinAddr: 0x1000061BC, symSize: 0x14 }
  - { offsetInCU: 0x1074E, offset: 0x1074E, size: 0x8, addend: 0x0, symName: __ZNKSt3__117__compressed_pairIPPNS_16__hash_node_baseIPNS_11__hash_nodeIiPvEEEENS_25__bucket_list_deallocatorINS_9allocatorIS7_EEEEE5firstB7v160006Ev, symObjAddr: 0x45C0, symBinAddr: 0x1000061D0, symSize: 0x24 }
  - { offsetInCU: 0x10774, offset: 0x10774, size: 0x8, addend: 0x0, symName: __ZNKSt3__122__compressed_pair_elemIPPNS_16__hash_node_baseIPNS_11__hash_nodeIiPvEEEELi0ELb0EE5__getB7v160006Ev, symObjAddr: 0x45E4, symBinAddr: 0x1000061F4, symSize: 0x14 }
  - { offsetInCU: 0x1079A, offset: 0x1079A, size: 0x8, addend: 0x0, symName: __ZNSt3__117__compressed_pairIfNS_8equal_toIiEEE6secondB7v160006Ev, symObjAddr: 0x45F8, symBinAddr: 0x100006208, symSize: 0x24 }
  - { offsetInCU: 0x107C0, offset: 0x107C0, size: 0x8, addend: 0x0, symName: __ZNSt3__122__compressed_pair_elemINS_8equal_toIiEELi1ELb1EE5__getB7v160006Ev, symObjAddr: 0x461C, symBinAddr: 0x10000622C, symSize: 0x14 }
  - { offsetInCU: 0x107E6, offset: 0x107E6, size: 0x8, addend: 0x0, symName: __ZNSt3__114pointer_traitsIPNS_16__hash_node_baseIPNS_11__hash_nodeIiPvEEEEE10pointer_toB7v160006ERS6_, symObjAddr: 0x4630, symBinAddr: 0x100006240, symSize: 0x14 }
  - { offsetInCU: 0x10809, offset: 0x10809, size: 0x8, addend: 0x0, symName: __ZNSt3__112__hash_tableIiNS_4hashIiEENS_8equal_toIiEENS_9allocatorIiEEE12__node_allocB7v160006Ev, symObjAddr: 0x4644, symBinAddr: 0x100006254, symSize: 0x28 }
  - { offsetInCU: 0x1082F, offset: 0x1082F, size: 0x8, addend: 0x0, symName: __ZNSt3__116allocator_traitsINS_9allocatorINS_11__hash_nodeIiPvEEEEE8allocateB7v160006ERS5_m, symObjAddr: 0x466C, symBinAddr: 0x10000627C, symSize: 0x2C }
  - { offsetInCU: 0x10862, offset: 0x10862, size: 0x8, addend: 0x0, symName: __ZNSt3__122__hash_node_destructorINS_9allocatorINS_11__hash_nodeIiPvEEEEEC1B7v160006ERS5_b, symObjAddr: 0x4698, symBinAddr: 0x1000062A8, symSize: 0x48 }
  - { offsetInCU: 0x108AF, offset: 0x108AF, size: 0x8, addend: 0x0, symName: __ZNSt3__110unique_ptrINS_11__hash_nodeIiPvEENS_22__hash_node_destructorINS_9allocatorIS3_EEEEEC1B7v160006ILb1EvEEPS3_NS_16__dependent_typeINS_27__unique_ptr_deleter_sfinaeIS7_EEXT_EE20__good_rval_ref_typeE, symObjAddr: 0x46E0, symBinAddr: 0x1000062F0, symSize: 0x3C }
  - { offsetInCU: 0x10900, offset: 0x10900, size: 0x8, addend: 0x0, symName: __ZNSt3__116allocator_traitsINS_9allocatorINS_11__hash_nodeIiPvEEEEE9constructB7v160006IiJRKiEvEEvRS5_PT_DpOT0_, symObjAddr: 0x471C, symBinAddr: 0x10000632C, symSize: 0x34 }
  - { offsetInCU: 0x10957, offset: 0x10957, size: 0x8, addend: 0x0, symName: __ZNSt3__122__hash_key_value_typesIiE9__get_ptrB7v160006ERi, symObjAddr: 0x4750, symBinAddr: 0x100006360, symSize: 0x14 }
  - { offsetInCU: 0x1097A, offset: 0x1097A, size: 0x8, addend: 0x0, symName: __ZNSt3__110unique_ptrINS_11__hash_nodeIiPvEENS_22__hash_node_destructorINS_9allocatorIS3_EEEEE11get_deleterB7v160006Ev, symObjAddr: 0x4764, symBinAddr: 0x100006374, symSize: 0x24 }
  - { offsetInCU: 0x109A0, offset: 0x109A0, size: 0x8, addend: 0x0, symName: __ZNSt3__117__compressed_pairINS_16__hash_node_baseIPNS_11__hash_nodeIiPvEEEENS_9allocatorIS4_EEE6secondB7v160006Ev, symObjAddr: 0x4788, symBinAddr: 0x100006398, symSize: 0x24 }
  - { offsetInCU: 0x109C6, offset: 0x109C6, size: 0x8, addend: 0x0, symName: __ZNSt3__122__compressed_pair_elemINS_9allocatorINS_11__hash_nodeIiPvEEEELi1ELb1EE5__getB7v160006Ev, symObjAddr: 0x47AC, symBinAddr: 0x1000063BC, symSize: 0x14 }
  - { offsetInCU: 0x109EC, offset: 0x109EC, size: 0x8, addend: 0x0, symName: __ZNSt3__19allocatorINS_11__hash_nodeIiPvEEE8allocateB7v160006Em, symObjAddr: 0x47C0, symBinAddr: 0x1000063D0, symSize: 0x5C }
  - { offsetInCU: 0x10A2A, offset: 0x10A2A, size: 0x8, addend: 0x0, symName: __ZNSt3__116allocator_traitsINS_9allocatorINS_11__hash_nodeIiPvEEEEE8max_sizeB7v160006IS5_vEEmRKS5_, symObjAddr: 0x481C, symBinAddr: 0x10000642C, symSize: 0x24 }
  - { offsetInCU: 0x10A58, offset: 0x10A58, size: 0x8, addend: 0x0, symName: __ZNKSt3__19allocatorINS_11__hash_nodeIiPvEEE8max_sizeB7v160006Ev, symObjAddr: 0x4840, symBinAddr: 0x100006450, symSize: 0x18 }
  - { offsetInCU: 0x10A7E, offset: 0x10A7E, size: 0x8, addend: 0x0, symName: __ZNSt3__122__hash_node_destructorINS_9allocatorINS_11__hash_nodeIiPvEEEEEC2B7v160006ERS5_b, symObjAddr: 0x4858, symBinAddr: 0x100006468, symSize: 0x38 }
  - { offsetInCU: 0x10AC6, offset: 0x10AC6, size: 0x8, addend: 0x0, symName: __ZNSt3__110unique_ptrINS_11__hash_nodeIiPvEENS_22__hash_node_destructorINS_9allocatorIS3_EEEEEC2B7v160006ILb1EvEEPS3_NS_16__dependent_typeINS_27__unique_ptr_deleter_sfinaeIS7_EEXT_EE20__good_rval_ref_typeE, symObjAddr: 0x4890, symBinAddr: 0x1000064A0, symSize: 0x48 }
  - { offsetInCU: 0x10B17, offset: 0x10B17, size: 0x8, addend: 0x0, symName: __ZNSt3__117__compressed_pairIPNS_11__hash_nodeIiPvEENS_22__hash_node_destructorINS_9allocatorIS3_EEEEEC1B7v160006IRS4_S8_EEOT_OT0_, symObjAddr: 0x48D8, symBinAddr: 0x1000064E8, symSize: 0x3C }
  - { offsetInCU: 0x10B6F, offset: 0x10B6F, size: 0x8, addend: 0x0, symName: __ZNSt3__117__compressed_pairIPNS_11__hash_nodeIiPvEENS_22__hash_node_destructorINS_9allocatorIS3_EEEEEC2B7v160006IRS4_S8_EEOT_OT0_, symObjAddr: 0x4914, symBinAddr: 0x100006524, symSize: 0x48 }
  - { offsetInCU: 0x10BC7, offset: 0x10BC7, size: 0x8, addend: 0x0, symName: __ZNSt3__122__compressed_pair_elemIPNS_11__hash_nodeIiPvEELi0ELb0EEC2B7v160006IRS4_vEEOT_, symObjAddr: 0x495C, symBinAddr: 0x10000656C, symSize: 0x24 }
  - { offsetInCU: 0x10C09, offset: 0x10C09, size: 0x8, addend: 0x0, symName: __ZNSt3__122__compressed_pair_elemINS_22__hash_node_destructorINS_9allocatorINS_11__hash_nodeIiPvEEEEEELi1ELb0EEC2B7v160006IS7_vEEOT_, symObjAddr: 0x4980, symBinAddr: 0x100006590, symSize: 0x24 }
  - { offsetInCU: 0x10C4B, offset: 0x10C4B, size: 0x8, addend: 0x0, symName: __ZNSt3__19allocatorINS_11__hash_nodeIiPvEEE9constructB7v160006IiJRKiEEEvPT_DpOT0_, symObjAddr: 0x49A4, symBinAddr: 0x1000065B4, symSize: 0x28 }
  - { offsetInCU: 0x10CA1, offset: 0x10CA1, size: 0x8, addend: 0x0, symName: __ZNSt3__117__compressed_pairIPNS_11__hash_nodeIiPvEENS_22__hash_node_destructorINS_9allocatorIS3_EEEEE6secondB7v160006Ev, symObjAddr: 0x49CC, symBinAddr: 0x1000065DC, symSize: 0x28 }
  - { offsetInCU: 0x10CC7, offset: 0x10CC7, size: 0x8, addend: 0x0, symName: __ZNSt3__122__compressed_pair_elemINS_22__hash_node_destructorINS_9allocatorINS_11__hash_nodeIiPvEEEEEELi1ELb0EE5__getB7v160006Ev, symObjAddr: 0x49F4, symBinAddr: 0x100006604, symSize: 0x14 }
  - { offsetInCU: 0x10CED, offset: 0x10CED, size: 0x8, addend: 0x0, symName: __ZNSt3__117__compressed_pairImNS_4hashIiEEE5firstB7v160006Ev, symObjAddr: 0x4A08, symBinAddr: 0x100006618, symSize: 0x24 }
  - { offsetInCU: 0x10D13, offset: 0x10D13, size: 0x8, addend: 0x0, symName: __ZNSt3__122__compressed_pair_elemImLi0ELb0EE5__getB7v160006Ev, symObjAddr: 0x4A2C, symBinAddr: 0x10000663C, symSize: 0x14 }
  - { offsetInCU: 0x10D39, offset: 0x10D39, size: 0x8, addend: 0x0, symName: __ZNSt3__117__compressed_pairIfNS_8equal_toIiEEE5firstB7v160006Ev, symObjAddr: 0x4A40, symBinAddr: 0x100006650, symSize: 0x24 }
  - { offsetInCU: 0x10D5F, offset: 0x10D5F, size: 0x8, addend: 0x0, symName: __ZNSt3__122__compressed_pair_elemIfLi0ELb0EE5__getB7v160006Ev, symObjAddr: 0x4A64, symBinAddr: 0x100006674, symSize: 0x14 }
  - { offsetInCU: 0x10D85, offset: 0x10D85, size: 0x8, addend: 0x0, symName: __ZNSt3__112__hash_tableIiNS_4hashIiEENS_8equal_toIiEENS_9allocatorIiEEE8__rehashILb1EEEvm, symObjAddr: 0x4A78, symBinAddr: 0x100006688, symSize: 0x1A8 }
  - { offsetInCU: 0x10DD5, offset: 0x10DD5, size: 0x8, addend: 0x0, symName: __ZNSt3__112__hash_tableIiNS_4hashIiEENS_8equal_toIiEENS_9allocatorIiEEE11__do_rehashILb1EEEvm, symObjAddr: 0x4C20, symBinAddr: 0x100006830, symSize: 0x290 }
  - { offsetInCU: 0x10EB8, offset: 0x10EB8, size: 0x8, addend: 0x0, symName: __ZNSt3__110unique_ptrIA_PNS_16__hash_node_baseIPNS_11__hash_nodeIiPvEEEENS_25__bucket_list_deallocatorINS_9allocatorIS7_EEEEE11get_deleterB7v160006Ev, symObjAddr: 0x4F2C, symBinAddr: 0x100006B3C, symSize: 0x24 }
  - { offsetInCU: 0x10EDE, offset: 0x10EDE, size: 0x8, addend: 0x0, symName: __ZNSt3__125__bucket_list_deallocatorINS_9allocatorIPNS_16__hash_node_baseIPNS_11__hash_nodeIiPvEEEEEEE7__allocB7v160006Ev, symObjAddr: 0x4F50, symBinAddr: 0x100006B60, symSize: 0x24 }
  - { offsetInCU: 0x10F04, offset: 0x10F04, size: 0x8, addend: 0x0, symName: __ZNSt3__110unique_ptrIA_PNS_16__hash_node_baseIPNS_11__hash_nodeIiPvEEEENS_25__bucket_list_deallocatorINS_9allocatorIS7_EEEEE5resetB7v160006IPS7_EENS_9enable_ifIXsr28_CheckArrayPointerConversionIT_EE5valueEvE4typeESH_, symObjAddr: 0x4F74, symBinAddr: 0x100006B84, symSize: 0x78 }
  - { offsetInCU: 0x10F51, offset: 0x10F51, size: 0x8, addend: 0x0, symName: __ZNSt3__116allocator_traitsINS_9allocatorIPNS_16__hash_node_baseIPNS_11__hash_nodeIiPvEEEEEEE8allocateB7v160006ERS9_m, symObjAddr: 0x4FEC, symBinAddr: 0x100006BFC, symSize: 0x2C }
  - { offsetInCU: 0x10F84, offset: 0x10F84, size: 0x8, addend: 0x0, symName: __ZNSt3__125__bucket_list_deallocatorINS_9allocatorIPNS_16__hash_node_baseIPNS_11__hash_nodeIiPvEEEEEEE4sizeB7v160006Ev, symObjAddr: 0x5018, symBinAddr: 0x100006C28, symSize: 0x24 }
  - { offsetInCU: 0x10FAA, offset: 0x10FAA, size: 0x8, addend: 0x0, symName: __ZNSt3__117__compressed_pairIPPNS_16__hash_node_baseIPNS_11__hash_nodeIiPvEEEENS_25__bucket_list_deallocatorINS_9allocatorIS7_EEEEE6secondB7v160006Ev, symObjAddr: 0x503C, symBinAddr: 0x100006C4C, symSize: 0x28 }
  - { offsetInCU: 0x10FD0, offset: 0x10FD0, size: 0x8, addend: 0x0, symName: __ZNSt3__122__compressed_pair_elemINS_25__bucket_list_deallocatorINS_9allocatorIPNS_16__hash_node_baseIPNS_11__hash_nodeIiPvEEEEEEEELi1ELb0EE5__getB7v160006Ev, symObjAddr: 0x5064, symBinAddr: 0x100006C74, symSize: 0x14 }
  - { offsetInCU: 0x10FF6, offset: 0x10FF6, size: 0x8, addend: 0x0, symName: __ZNSt3__117__compressed_pairImNS_9allocatorIPNS_16__hash_node_baseIPNS_11__hash_nodeIiPvEEEEEEE6secondB7v160006Ev, symObjAddr: 0x5078, symBinAddr: 0x100006C88, symSize: 0x24 }
  - { offsetInCU: 0x1101C, offset: 0x1101C, size: 0x8, addend: 0x0, symName: __ZNSt3__122__compressed_pair_elemINS_9allocatorIPNS_16__hash_node_baseIPNS_11__hash_nodeIiPvEEEEEELi1ELb1EE5__getB7v160006Ev, symObjAddr: 0x509C, symBinAddr: 0x100006CAC, symSize: 0x14 }
  - { offsetInCU: 0x11042, offset: 0x11042, size: 0x8, addend: 0x0, symName: __ZNSt3__117__compressed_pairIPPNS_16__hash_node_baseIPNS_11__hash_nodeIiPvEEEENS_25__bucket_list_deallocatorINS_9allocatorIS7_EEEEE5firstB7v160006Ev, symObjAddr: 0x50B0, symBinAddr: 0x100006CC0, symSize: 0x24 }
  - { offsetInCU: 0x11068, offset: 0x11068, size: 0x8, addend: 0x0, symName: __ZNSt3__125__bucket_list_deallocatorINS_9allocatorIPNS_16__hash_node_baseIPNS_11__hash_nodeIiPvEEEEEEEclB7v160006EPS8_, symObjAddr: 0x50D4, symBinAddr: 0x100006CE4, symSize: 0x58 }
  - { offsetInCU: 0x1109D, offset: 0x1109D, size: 0x8, addend: 0x0, symName: __ZNSt3__122__compressed_pair_elemIPPNS_16__hash_node_baseIPNS_11__hash_nodeIiPvEEEELi0ELb0EE5__getB7v160006Ev, symObjAddr: 0x512C, symBinAddr: 0x100006D3C, symSize: 0x14 }
  - { offsetInCU: 0x110C3, offset: 0x110C3, size: 0x8, addend: 0x0, symName: __ZNSt3__116allocator_traitsINS_9allocatorIPNS_16__hash_node_baseIPNS_11__hash_nodeIiPvEEEEEEE10deallocateB7v160006ERS9_PS8_m, symObjAddr: 0x5140, symBinAddr: 0x100006D50, symSize: 0x34 }
  - { offsetInCU: 0x11105, offset: 0x11105, size: 0x8, addend: 0x0, symName: __ZNSt3__19allocatorIPNS_16__hash_node_baseIPNS_11__hash_nodeIiPvEEEEE10deallocateB7v160006EPS7_m, symObjAddr: 0x5174, symBinAddr: 0x100006D84, symSize: 0x40 }
  - { offsetInCU: 0x11147, offset: 0x11147, size: 0x8, addend: 0x0, symName: __ZNSt3__19allocatorIPNS_16__hash_node_baseIPNS_11__hash_nodeIiPvEEEEE8allocateB7v160006Em, symObjAddr: 0x51B4, symBinAddr: 0x100006DC4, symSize: 0x58 }
  - { offsetInCU: 0x11185, offset: 0x11185, size: 0x8, addend: 0x0, symName: __ZNSt3__116allocator_traitsINS_9allocatorIPNS_16__hash_node_baseIPNS_11__hash_nodeIiPvEEEEEEE8max_sizeB7v160006IS9_vEEmRKS9_, symObjAddr: 0x520C, symBinAddr: 0x100006E1C, symSize: 0x24 }
  - { offsetInCU: 0x111B3, offset: 0x111B3, size: 0x8, addend: 0x0, symName: __ZNKSt3__19allocatorIPNS_16__hash_node_baseIPNS_11__hash_nodeIiPvEEEEE8max_sizeB7v160006Ev, symObjAddr: 0x5230, symBinAddr: 0x100006E40, symSize: 0x14 }
  - { offsetInCU: 0x111D9, offset: 0x111D9, size: 0x8, addend: 0x0, symName: __ZNSt3__117__compressed_pairImNS_9allocatorIPNS_16__hash_node_baseIPNS_11__hash_nodeIiPvEEEEEEE5firstB7v160006Ev, symObjAddr: 0x5244, symBinAddr: 0x100006E54, symSize: 0x24 }
  - { offsetInCU: 0x111FF, offset: 0x111FF, size: 0x8, addend: 0x0, symName: __ZNSt3__122__compressed_pair_elemINS_16__hash_node_baseIPNS_11__hash_nodeIiPvEEEELi0ELb0EE5__getB7v160006Ev, symObjAddr: 0x52D8, symBinAddr: 0x100006EE8, symSize: 0x14 }
  - { offsetInCU: 0x11225, offset: 0x11225, size: 0x8, addend: 0x0, symName: __ZNKSt3__117__compressed_pairIPNS_11__hash_nodeIiPvEENS_22__hash_node_destructorINS_9allocatorIS3_EEEEE5firstB7v160006Ev, symObjAddr: 0x52EC, symBinAddr: 0x100006EFC, symSize: 0x24 }
  - { offsetInCU: 0x1124B, offset: 0x1124B, size: 0x8, addend: 0x0, symName: __ZNKSt3__122__compressed_pair_elemIPNS_11__hash_nodeIiPvEELi0ELb0EE5__getB7v160006Ev, symObjAddr: 0x5310, symBinAddr: 0x100006F20, symSize: 0x14 }
  - { offsetInCU: 0x11271, offset: 0x11271, size: 0x8, addend: 0x0, symName: __ZNSt3__117__compressed_pairIPNS_11__hash_nodeIiPvEENS_22__hash_node_destructorINS_9allocatorIS3_EEEEE5firstB7v160006Ev, symObjAddr: 0x5324, symBinAddr: 0x100006F34, symSize: 0x24 }
  - { offsetInCU: 0x11297, offset: 0x11297, size: 0x8, addend: 0x0, symName: __ZNSt3__122__compressed_pair_elemIPNS_11__hash_nodeIiPvEELi0ELb0EE5__getB7v160006Ev, symObjAddr: 0x5348, symBinAddr: 0x100006F58, symSize: 0x14 }
  - { offsetInCU: 0x112BD, offset: 0x112BD, size: 0x8, addend: 0x0, symName: __ZNSt3__110unique_ptrINS_11__hash_nodeIiPvEENS_22__hash_node_destructorINS_9allocatorIS3_EEEEED2B7v160006Ev, symObjAddr: 0x535C, symBinAddr: 0x100006F6C, symSize: 0x30 }
  - { offsetInCU: 0x112E7, offset: 0x112E7, size: 0x8, addend: 0x0, symName: __ZNSt3__110unique_ptrINS_11__hash_nodeIiPvEENS_22__hash_node_destructorINS_9allocatorIS3_EEEEE5resetB7v160006EPS3_, symObjAddr: 0x538C, symBinAddr: 0x100006F9C, symSize: 0x78 }
  - { offsetInCU: 0x1132B, offset: 0x1132B, size: 0x8, addend: 0x0, symName: __ZNSt3__122__hash_node_destructorINS_9allocatorINS_11__hash_nodeIiPvEEEEEclB7v160006EPS4_, symObjAddr: 0x5404, symBinAddr: 0x100007014, symSize: 0x90 }
  - { offsetInCU: 0x11360, offset: 0x11360, size: 0x8, addend: 0x0, symName: __ZNSt3__116allocator_traitsINS_9allocatorINS_11__hash_nodeIiPvEEEEE7destroyB7v160006IivvEEvRS5_PT_, symObjAddr: 0x5494, symBinAddr: 0x1000070A4, symSize: 0x14 }
  - { offsetInCU: 0x1139A, offset: 0x1139A, size: 0x8, addend: 0x0, symName: __ZNSt3__116allocator_traitsINS_9allocatorINS_11__hash_nodeIiPvEEEEE10deallocateB7v160006ERS5_PS4_m, symObjAddr: 0x54A8, symBinAddr: 0x1000070B8, symSize: 0x34 }
  - { offsetInCU: 0x113DC, offset: 0x113DC, size: 0x8, addend: 0x0, symName: __ZNSt3__19allocatorINS_11__hash_nodeIiPvEEE10deallocateB7v160006EPS3_m, symObjAddr: 0x54DC, symBinAddr: 0x1000070EC, symSize: 0x44 }
  - { offsetInCU: 0x1141E, offset: 0x1141E, size: 0x8, addend: 0x0, symName: __ZNSt3__115__hash_iteratorIPNS_11__hash_nodeIiPvEEEC2B7v160006EPNS_16__hash_node_baseIS4_EEPKv, symObjAddr: 0x5520, symBinAddr: 0x100007130, symSize: 0x24 }
  - { offsetInCU: 0x11466, offset: 0x11466, size: 0x8, addend: 0x0, symName: __ZNSt3__14pairINS_15__hash_iteratorIPNS_11__hash_nodeIiPvEEEEbEC2B7v160006IS6_RbLS3_0EEEOT_OT0_, symObjAddr: 0x5544, symBinAddr: 0x100007154, symSize: 0x38 }
  - { offsetInCU: 0x114C4, offset: 0x114C4, size: 0x8, addend: 0x0, symName: __ZNSt3__112__hash_tableIiNS_4hashIiEENS_8equal_toIiEENS_9allocatorIiEEED2Ev, symObjAddr: 0x557C, symBinAddr: 0x10000718C, symSize: 0x58 }
  - { offsetInCU: 0x114F0, offset: 0x114F0, size: 0x8, addend: 0x0, symName: __ZNSt3__112__hash_tableIiNS_4hashIiEENS_8equal_toIiEENS_9allocatorIiEEE17__deallocate_nodeEPNS_16__hash_node_baseIPNS_11__hash_nodeIiPvEEEE, symObjAddr: 0x55D4, symBinAddr: 0x1000071E4, symSize: 0x98 }
  - { offsetInCU: 0x11562, offset: 0x11562, size: 0x8, addend: 0x0, symName: __ZNSt3__110unique_ptrIA_PNS_16__hash_node_baseIPNS_11__hash_nodeIiPvEEEENS_25__bucket_list_deallocatorINS_9allocatorIS7_EEEEED1B7v160006Ev, symObjAddr: 0x567C, symBinAddr: 0x10000728C, symSize: 0x2C }
  - { offsetInCU: 0x1158C, offset: 0x1158C, size: 0x8, addend: 0x0, symName: __ZNSt3__110unique_ptrIA_PNS_16__hash_node_baseIPNS_11__hash_nodeIiPvEEEENS_25__bucket_list_deallocatorINS_9allocatorIS7_EEEEED2B7v160006Ev, symObjAddr: 0x56A8, symBinAddr: 0x1000072B8, symSize: 0x30 }
  - { offsetInCU: 0x115B6, offset: 0x115B6, size: 0x8, addend: 0x0, symName: __ZNSt3__110unique_ptrIA_PNS_16__hash_node_baseIPNS_11__hash_nodeIiPvEEEENS_25__bucket_list_deallocatorINS_9allocatorIS7_EEEEE5resetB7v160006EDn, symObjAddr: 0x56D8, symBinAddr: 0x1000072E8, symSize: 0x6C }
  - { offsetInCU: 0x115F6, offset: 0x115F6, size: 0x8, addend: 0x0, symName: __ZNSt3__113unordered_setIiNS_4hashIiEENS_8equal_toIiEENS_9allocatorIiEEED2B7v160006Ev, symObjAddr: 0x5744, symBinAddr: 0x100007354, symSize: 0x2C }
  - { offsetInCU: 0x11620, offset: 0x11620, size: 0x8, addend: 0x0, symName: __ZNSt3__112__hash_tableIiNS_4hashIiEENS_8equal_toIiEENS_9allocatorIiEEE4findIiEENS_15__hash_iteratorIPNS_11__hash_nodeIiPvEEEERKT_, symObjAddr: 0x5770, symBinAddr: 0x100007380, symSize: 0x1B8 }
  - { offsetInCU: 0x116AA, offset: 0x116AA, size: 0x8, addend: 0x0, symName: __ZNSt3__121__hash_const_iteratorIPNS_11__hash_nodeIiPvEEEC1B7v160006ERKNS_15__hash_iteratorIS4_EE, symObjAddr: 0x5928, symBinAddr: 0x100007538, symSize: 0x34 }
  - { offsetInCU: 0x116E3, offset: 0x116E3, size: 0x8, addend: 0x0, symName: __ZNSt3__112__hash_tableIiNS_4hashIiEENS_8equal_toIiEENS_9allocatorIiEEE3endEv, symObjAddr: 0x595C, symBinAddr: 0x10000756C, symSize: 0x30 }
  - { offsetInCU: 0x1170B, offset: 0x1170B, size: 0x8, addend: 0x0, symName: __ZNSt3__121__hash_const_iteratorIPNS_11__hash_nodeIiPvEEEC2B7v160006ERKNS_15__hash_iteratorIS4_EE, symObjAddr: 0x598C, symBinAddr: 0x10000759C, symSize: 0x24 }
...
