---
triple:          'arm64-apple-darwin'
binary-path:     '/Users/mac/Desktop/BarisCanCoskun/Udemy/Cpp_DSA_Leetcode/12Section32-VectorInterviewLeetCode/1-Vector-FindMaxMin/main'
relocations:
  - { offsetInCU: 0x4A92, offset: 0x4A92, size: 0x8, addend: 0x0, symName: __ZNSt3__124__put_character_sequenceB7v160006IcNS_11char_traitsIcEEEERNS_13basic_ostreamIT_T0_EES7_PKS4_m, symObjAddr: 0x2414, symBinAddr: 0x1000043D8, symSize: 0x1EC }
  - { offsetInCU: 0x5916, offset: 0x5916, size: 0x8, addend: 0x0, symName: __ZNSt3__17advanceB7v160006IPKimmvEEvRT_T0_, symObjAddr: 0x3180, symBinAddr: 0x100005144, symSize: 0x50 }
  - { offsetInCU: 0x6D62, offset: 0x6D62, size: 0x8, addend: 0x0, symName: __ZNSt3__17advanceB7v160006INS_21__tree_const_iteratorIiPNS_11__tree_nodeIiPvEElEEllvEEvRT_T0_, symObjAddr: 0x4888, symBinAddr: 0x10000684C, symSize: 0x50 }
  - { offsetInCU: 0x83E9, offset: 0x83E9, size: 0x8, addend: 0x0, symName: __ZNSt3__1lsB7v160006INS_11char_traitsIcEEEERNS_13basic_ostreamIcT_EES6_PKc, symObjAddr: 0x5AC, symBinAddr: 0x100002570, symSize: 0x48 }
  - { offsetInCU: 0x842F, offset: 0x842F, size: 0x8, addend: 0x0, symName: __ZNSt3__14endlB7v160006IcNS_11char_traitsIcEEEERNS_13basic_ostreamIT_T0_EES7_, symObjAddr: 0x620, symBinAddr: 0x1000025E4, symSize: 0x58 }
  - { offsetInCU: 0x846F, offset: 0x846F, size: 0x8, addend: 0x0, symName: __ZNSt3__1neB7v160006IPiEEbRKNS_11__wrap_iterIT_EES6_, symObjAddr: 0x6D8, symBinAddr: 0x10000269C, symSize: 0x34 }
  - { offsetInCU: 0x84B2, offset: 0x84B2, size: 0x8, addend: 0x0, symName: __ZNSt3__13endB7v160006INS_6vectorIiNS_9allocatorIiEEEEEEDTcldtfp_3endEERKT_, symObjAddr: 0x834, symBinAddr: 0x1000027F8, symSize: 0x2C }
  - { offsetInCU: 0x84E7, offset: 0x84E7, size: 0x8, addend: 0x0, symName: __ZNSt3__1eqB7v160006IPiEEbRKNS_11__wrap_iterIT_EES6_, symObjAddr: 0x9A8, symBinAddr: 0x10000296C, symSize: 0x48 }
  - { offsetInCU: 0x852A, offset: 0x852A, size: 0x8, addend: 0x0, symName: __ZNSt3__116__tree_prev_iterB7v160006IPNS_16__tree_node_baseIPvEEPNS_15__tree_end_nodeIS4_EEEET_T0_, symObjAddr: 0xB04, symBinAddr: 0x100002AC8, symSize: 0xA4 }
  - { offsetInCU: 0x8576, offset: 0x8576, size: 0x8, addend: 0x0, symName: __ZNSt3__110__tree_maxB7v160006IPNS_16__tree_node_baseIPvEEEET_S5_, symObjAddr: 0xBA8, symBinAddr: 0x100002B6C, symSize: 0x40 }
  - { offsetInCU: 0x85AB, offset: 0x85AB, size: 0x8, addend: 0x0, symName: __ZNSt3__120__tree_is_left_childB7v160006IPNS_16__tree_node_baseIPvEEEEbT_, symObjAddr: 0xBE8, symBinAddr: 0x100002BAC, symSize: 0x2C }
  - { offsetInCU: 0x85E0, offset: 0x85E0, size: 0x8, addend: 0x0, symName: __ZNSt3__122__make_exception_guardB7v160006INS_6vectorIiNS_9allocatorIiEEE16__destroy_vectorEEENS_28__exception_guard_exceptionsIT_EES7_, symObjAddr: 0xD98, symBinAddr: 0x100002D5C, symSize: 0x40 }
  - { offsetInCU: 0x8615, offset: 0x8615, size: 0x8, addend: 0x0, symName: __ZNSt3__119__debug_db_insert_cB7v160006INS_6vectorIiNS_9allocatorIiEEEEEEvPT_, symObjAddr: 0xE0C, symBinAddr: 0x100002DD0, symSize: 0x10 }
  - { offsetInCU: 0x8646, offset: 0x8646, size: 0x8, addend: 0x0, symName: __ZNSt3__119__allocate_at_leastB7v160006INS_9allocatorIiEEEENS_19__allocation_resultINS_16allocator_traitsIT_E7pointerEEERS5_m, symObjAddr: 0x11A8, symBinAddr: 0x10000316C, symSize: 0x40 }
  - { offsetInCU: 0x8689, offset: 0x8689, size: 0x8, addend: 0x0, symName: __ZNSt3__13minB7v160006ImEERKT_S3_S3_, symObjAddr: 0x12E4, symBinAddr: 0x1000032A8, symSize: 0x2C }
  - { offsetInCU: 0x88B6, offset: 0x88B6, size: 0x8, addend: 0x0, symName: __ZNSt3__13minB7v160006ImNS_6__lessImmEEEERKT_S5_S5_T0_, symObjAddr: 0x1370, symBinAddr: 0x100003334, symSize: 0x54 }
  - { offsetInCU: 0x894B, offset: 0x894B, size: 0x8, addend: 0x0, symName: __ZNSt3__120__throw_length_errorB7v160006EPKc, symObjAddr: 0x144C, symBinAddr: 0x100003410, symSize: 0x64 }
  - { offsetInCU: 0x8973, offset: 0x8973, size: 0x8, addend: 0x0, symName: __ZNSt3__117__libcpp_allocateB7v160006Emm, symObjAddr: 0x15BC, symBinAddr: 0x100003580, symSize: 0x60 }
  - { offsetInCU: 0x89CD, offset: 0x89CD, size: 0x8, addend: 0x0, symName: __ZNSt3__124__is_overaligned_for_newB7v160006Em, symObjAddr: 0x161C, symBinAddr: 0x1000035E0, symSize: 0x20 }
  - { offsetInCU: 0x89FB, offset: 0x89FB, size: 0x8, addend: 0x0, symName: __ZNSt3__121__libcpp_operator_newB7v160006IJmSt11align_val_tEEEPvDpT_, symObjAddr: 0x163C, symBinAddr: 0x100003600, symSize: 0x2C }
  - { offsetInCU: 0x8A48, offset: 0x8A48, size: 0x8, addend: 0x0, symName: __ZNSt3__121__libcpp_operator_newB7v160006IJmEEEPvDpT_, symObjAddr: 0x1668, symBinAddr: 0x10000362C, symSize: 0x24 }
  - { offsetInCU: 0x8A81, offset: 0x8A81, size: 0x8, addend: 0x0, symName: __ZNSt3__112__to_addressB7v160006IiEEPT_S2_, symObjAddr: 0x1784, symBinAddr: 0x100003748, symSize: 0x14 }
  - { offsetInCU: 0x8AB6, offset: 0x8AB6, size: 0x8, addend: 0x0, symName: __ZNSt3__130__uninitialized_allocator_copyB7v160006INS_9allocatorIiEEiiLPv0EEEPT0_RT_PKS4_S9_S5_, symObjAddr: 0x1834, symBinAddr: 0x1000037F8, symSize: 0x38 }
  - { offsetInCU: 0x8B2E, offset: 0x8B2E, size: 0x8, addend: 0x0, symName: __ZNSt3__14copyB7v160006IPKiPiEET0_T_S5_S4_, symObjAddr: 0x18DC, symBinAddr: 0x1000038A0, symSize: 0x40 }
  - { offsetInCU: 0x8B88, offset: 0x8B88, size: 0x8, addend: 0x0, symName: __ZNSt3__16__copyB7v160006INS_17_ClassicAlgPolicyEPKiS3_PiEENS_4pairIT0_T2_EES6_T1_S7_, symObjAddr: 0x191C, symBinAddr: 0x1000038E0, symSize: 0x44 }
  - { offsetInCU: 0x8BF4, offset: 0x8BF4, size: 0x8, addend: 0x0, symName: __ZNSt3__123__dispatch_copy_or_moveB7v160006INS_17_ClassicAlgPolicyENS_11__copy_loopIS1_EENS_14__copy_trivialEPKiS6_PiEENS_4pairIT2_T4_EES9_T3_SA_, symObjAddr: 0x1960, symBinAddr: 0x100003924, symSize: 0x44 }
  - { offsetInCU: 0x8C72, offset: 0x8C72, size: 0x8, addend: 0x0, symName: __ZNSt3__121__unwrap_and_dispatchB7v160006INS_10__overloadINS_11__copy_loopINS_17_ClassicAlgPolicyEEENS_14__copy_trivialEEEPKiS8_PiLi0EEENS_4pairIT0_T2_EESB_T1_SC_, symObjAddr: 0x19A4, symBinAddr: 0x100003968, symSize: 0xB4 }
  - { offsetInCU: 0x8D00, offset: 0x8D00, size: 0x8, addend: 0x0, symName: __ZNSt3__114__unwrap_rangeB7v160006IPKiS2_EENS_4pairIT0_S4_EET_S6_, symObjAddr: 0x1A58, symBinAddr: 0x100003A1C, symSize: 0x60 }
  - { offsetInCU: 0x8E95, offset: 0x8E95, size: 0x8, addend: 0x0, symName: __ZNSt3__113__unwrap_iterB7v160006IPiNS_18__unwrap_iter_implIS1_Lb1EEELi0EEEDTclsrT0_8__unwrapclsr3stdE7declvalIT_EEEES5_, symObjAddr: 0x1B00, symBinAddr: 0x100003AC4, symSize: 0x24 }
  - { offsetInCU: 0x8ED9, offset: 0x8ED9, size: 0x8, addend: 0x0, symName: __ZNSt3__19make_pairB7v160006IPKiPiEENS_4pairINS_18__unwrap_ref_decayIT_E4typeENS5_IT0_E4typeEEEOS6_OS9_, symObjAddr: 0x1B24, symBinAddr: 0x100003AE8, symSize: 0x38 }
  - { offsetInCU: 0x8F28, offset: 0x8F28, size: 0x8, addend: 0x0, symName: __ZNSt3__114__rewrap_rangeB7v160006IPKiS2_EET_S3_T0_, symObjAddr: 0x1B5C, symBinAddr: 0x100003B20, symSize: 0x2C }
  - { offsetInCU: 0x8F74, offset: 0x8F74, size: 0x8, addend: 0x0, symName: __ZNSt3__113__rewrap_iterB7v160006IPiS1_NS_18__unwrap_iter_implIS1_Lb1EEEEET_S4_T0_, symObjAddr: 0x1B88, symBinAddr: 0x100003B4C, symSize: 0x3C }
  - { offsetInCU: 0x8FC9, offset: 0x8FC9, size: 0x8, addend: 0x0, symName: __ZNSt3__19make_pairB7v160006IPKiS2_EENS_4pairINS_18__unwrap_ref_decayIT_E4typeENS4_IT0_E4typeEEEOS5_OS8_, symObjAddr: 0x1BC4, symBinAddr: 0x100003B88, symSize: 0x38 }
  - { offsetInCU: 0x9018, offset: 0x9018, size: 0x8, addend: 0x0, symName: __ZNSt3__113__unwrap_iterB7v160006IPKiNS_18__unwrap_iter_implIS2_Lb1EEELi0EEEDTclsrT0_8__unwrapclsr3stdE7declvalIT_EEEES6_, symObjAddr: 0x1BFC, symBinAddr: 0x100003BC0, symSize: 0x24 }
  - { offsetInCU: 0x9183, offset: 0x9183, size: 0x8, addend: 0x0, symName: __ZNSt3__112__to_addressB7v160006IKiEEPT_S3_, symObjAddr: 0x1CB4, symBinAddr: 0x100003C78, symSize: 0x14 }
  - { offsetInCU: 0x91B8, offset: 0x91B8, size: 0x8, addend: 0x0, symName: __ZNSt3__119__copy_trivial_implB7v160006IKiiEENS_4pairIPT_PT0_EES4_S4_S6_, symObjAddr: 0x1CC8, symBinAddr: 0x100003C8C, symSize: 0x84 }
  - { offsetInCU: 0x9220, offset: 0x9220, size: 0x8, addend: 0x0, symName: __ZNSt3__19make_pairB7v160006IRPKiPiEENS_4pairINS_18__unwrap_ref_decayIT_E4typeENS6_IT0_E4typeEEEOS7_OSA_, symObjAddr: 0x1D4C, symBinAddr: 0x100003D10, symSize: 0x38 }
  - { offsetInCU: 0x92C2, offset: 0x92C2, size: 0x8, addend: 0x0, symName: __ZNSt3__113__rewrap_iterB7v160006IPKiS2_NS_18__unwrap_iter_implIS2_Lb1EEEEET_S5_T0_, symObjAddr: 0x1E88, symBinAddr: 0x100003E4C, symSize: 0x3C }
  - { offsetInCU: 0x9317, offset: 0x9317, size: 0x8, addend: 0x0, symName: __ZNSt3__118__debug_db_erase_cB7v160006INS_6vectorIiNS_9allocatorIiEEEEEEvPT_, symObjAddr: 0x2128, symBinAddr: 0x1000040EC, symSize: 0x10 }
  - { offsetInCU: 0x9348, offset: 0x9348, size: 0x8, addend: 0x0, symName: __ZNSt3__119__libcpp_deallocateB7v160006EPvmm, symObjAddr: 0x22C8, symBinAddr: 0x10000428C, symSize: 0x60 }
  - { offsetInCU: 0x93AD, offset: 0x93AD, size: 0x8, addend: 0x0, symName: __ZNSt3__127__do_deallocate_handle_sizeB7v160006IJSt11align_val_tEEEvPvmDpT_, symObjAddr: 0x2328, symBinAddr: 0x1000042EC, symSize: 0x30 }
  - { offsetInCU: 0x9400, offset: 0x9400, size: 0x8, addend: 0x0, symName: __ZNSt3__127__do_deallocate_handle_sizeB7v160006IJEEEvPvmDpT_, symObjAddr: 0x2358, symBinAddr: 0x10000431C, symSize: 0x28 }
  - { offsetInCU: 0x943E, offset: 0x943E, size: 0x8, addend: 0x0, symName: __ZNSt3__124__libcpp_operator_deleteB7v160006IJPvSt11align_val_tEEEvDpT_, symObjAddr: 0x2380, symBinAddr: 0x100004344, symSize: 0x2C }
  - { offsetInCU: 0x9487, offset: 0x9487, size: 0x8, addend: 0x0, symName: __ZNSt3__124__libcpp_operator_deleteB7v160006IJPvEEEvDpT_, symObjAddr: 0x23AC, symBinAddr: 0x100004370, symSize: 0x24 }
  - { offsetInCU: 0x94BC, offset: 0x94BC, size: 0x8, addend: 0x0, symName: __ZNSt3__116__pad_and_outputB7v160006IcNS_11char_traitsIcEEEENS_19ostreambuf_iteratorIT_T0_EES6_PKS4_S8_S8_RNS_8ios_baseES4_, symObjAddr: 0x2650, symBinAddr: 0x100004614, symSize: 0x240 }
  - { offsetInCU: 0x958B, offset: 0x958B, size: 0x8, addend: 0x0, symName: __ZNSt3__119__debug_db_insert_cB7v160006INS_12basic_stringIcNS_11char_traitsIcEENS_9allocatorIcEEEEEEvPT_, symObjAddr: 0x2B04, symBinAddr: 0x100004AC8, symSize: 0x10 }
  - { offsetInCU: 0x95BC, offset: 0x95BC, size: 0x8, addend: 0x0, symName: __ZNSt3__112__to_addressB7v160006IcEEPT_S2_, symObjAddr: 0x2BD0, symBinAddr: 0x100004B94, symSize: 0x14 }
  - { offsetInCU: 0x9624, offset: 0x9624, size: 0x8, addend: 0x0, symName: __ZNSt3__19use_facetB7v160006INS_5ctypeIcEEEERKT_RKNS_6localeE, symObjAddr: 0x2E88, symBinAddr: 0x100004E4C, symSize: 0x2C }
  - { offsetInCU: 0x9AF3, offset: 0x9AF3, size: 0x8, addend: 0x0, symName: __ZNSt3__118__constexpr_strlenB7v160006EPKc, symObjAddr: 0x2F20, symBinAddr: 0x100004EE4, symSize: 0x24 }
  - { offsetInCU: 0x9B1F, offset: 0x9B1F, size: 0x8, addend: 0x0, symName: __ZNSt3__18distanceB7v160006IPKiEENS_15iterator_traitsIT_E15difference_typeES4_S4_, symObjAddr: 0x3154, symBinAddr: 0x100005118, symSize: 0x2C }
  - { offsetInCU: 0x9B62, offset: 0x9B62, size: 0x8, addend: 0x0, symName: __ZNSt3__125__debug_db_invalidate_allB7v160006INS_6vectorIiNS_9allocatorIiEEEEEEvPT_, symObjAddr: 0x3370, symBinAddr: 0x100005334, symSize: 0x10 }
  - { offsetInCU: 0x9B93, offset: 0x9B93, size: 0x8, addend: 0x0, symName: __ZNSt3__110__distanceB7v160006IPKiEENS_15iterator_traitsIT_E15difference_typeES4_S4_NS_26random_access_iterator_tagE, symObjAddr: 0x3380, symBinAddr: 0x100005344, symSize: 0x28 }
  - { offsetInCU: 0x9BE0, offset: 0x9BE0, size: 0x8, addend: 0x0, symName: __ZNSt3__121__convert_to_integralB7v160006Em, symObjAddr: 0x33A8, symBinAddr: 0x10000536C, symSize: 0x14 }
  - { offsetInCU: 0x9C0C, offset: 0x9C0C, size: 0x8, addend: 0x0, symName: __ZNSt3__19__advanceB7v160006IPKiEEvRT_NS_15iterator_traitsIS3_E15difference_typeENS_26random_access_iterator_tagE, symObjAddr: 0x33BC, symBinAddr: 0x100005380, symSize: 0x28 }
  - { offsetInCU: 0x9C55, offset: 0x9C55, size: 0x8, addend: 0x0, symName: __ZNSt3__13maxB7v160006ImEERKT_S3_S3_, symObjAddr: 0x3500, symBinAddr: 0x1000054C4, symSize: 0x2C }
  - { offsetInCU: 0x9C98, offset: 0x9C98, size: 0x8, addend: 0x0, symName: __ZNSt3__13maxB7v160006ImNS_6__lessImmEEEERKT_S5_S5_T0_, symObjAddr: 0x352C, symBinAddr: 0x1000054F0, symSize: 0x54 }
  - { offsetInCU: 0x9CF2, offset: 0x9CF2, size: 0x8, addend: 0x0, symName: __ZNSt3__115__debug_db_swapB7v160006INS_6vectorIiNS_9allocatorIiEEEEEEvPT_S6_, symObjAddr: 0x3658, symBinAddr: 0x10000561C, symSize: 0x14 }
  - { offsetInCU: 0x9D64, offset: 0x9D64, size: 0x8, addend: 0x0, symName: __ZNSt3__1neB7v160006IPKiEEbRKNS_11__wrap_iterIT_EES7_, symObjAddr: 0x3B34, symBinAddr: 0x100005AF8, symSize: 0x34 }
  - { offsetInCU: 0x9DA7, offset: 0x9DA7, size: 0x8, addend: 0x0, symName: __ZNSt3__1eqB7v160006IPKiEEbRKNS_11__wrap_iterIT_EES7_, symObjAddr: 0x3D1C, symBinAddr: 0x100005CE0, symSize: 0x48 }
  - { offsetInCU: 0x9DEA, offset: 0x9DEA, size: 0x8, addend: 0x0, symName: __ZNSt3__1eqB7v160006ERKNS_21__tree_const_iteratorIiPNS_11__tree_nodeIiPvEElEES7_, symObjAddr: 0x447C, symBinAddr: 0x100006440, symSize: 0x30 }
  - { offsetInCU: 0x9E27, offset: 0x9E27, size: 0x8, addend: 0x0, symName: __ZNSt3__14nextB7v160006INS_21__tree_const_iteratorIiPNS_11__tree_nodeIiPvEElEEEENS_9enable_ifIXsr25__is_cpp17_input_iteratorIT_EE5valueES8_E4typeES8_NS_15iterator_traitsIS8_E15difference_typeE, symObjAddr: 0x4728, symBinAddr: 0x1000066EC, symSize: 0x50 }
  - { offsetInCU: 0x9E6A, offset: 0x9E6A, size: 0x8, addend: 0x0, symName: __ZNSt3__121__convert_to_integralB7v160006El, symObjAddr: 0x48D8, symBinAddr: 0x10000689C, symSize: 0x14 }
  - { offsetInCU: 0x9E96, offset: 0x9E96, size: 0x8, addend: 0x0, symName: __ZNSt3__19__advanceB7v160006INS_21__tree_const_iteratorIiPNS_11__tree_nodeIiPvEElEEEEvRT_NS_15iterator_traitsIS7_E15difference_typeENS_26bidirectional_iterator_tagE, symObjAddr: 0x48EC, symBinAddr: 0x1000068B0, symSize: 0xA4 }
  - { offsetInCU: 0x9EDF, offset: 0x9EDF, size: 0x8, addend: 0x0, symName: __ZNSt3__116__tree_next_iterB7v160006IPNS_15__tree_end_nodeIPNS_16__tree_node_baseIPvEEEES5_EET_T0_, symObjAddr: 0x49C8, symBinAddr: 0x10000698C, symSize: 0x80 }
  - { offsetInCU: 0x9F1D, offset: 0x9F1D, size: 0x8, addend: 0x0, symName: __ZNSt3__110__tree_minB7v160006IPNS_16__tree_node_baseIPvEEEET_S5_, symObjAddr: 0x4A48, symBinAddr: 0x100006A0C, symSize: 0x40 }
  - { offsetInCU: 0x9F70, offset: 0x9F70, size: 0x8, addend: 0x0, symName: __ZNSt3__127__tree_balance_after_insertB7v160006IPNS_16__tree_node_baseIPvEEEEvT_S5_, symObjAddr: 0x4EA4, symBinAddr: 0x100006E68, symSize: 0x27C }
  - { offsetInCU: 0x9FEC, offset: 0x9FEC, size: 0x8, addend: 0x0, symName: __ZNSt3__118__tree_left_rotateB7v160006IPNS_16__tree_node_baseIPvEEEEvT_, symObjAddr: 0x5148, symBinAddr: 0x10000710C, symSize: 0xD8 }
  - { offsetInCU: 0xA02E, offset: 0xA02E, size: 0x8, addend: 0x0, symName: __ZNSt3__119__tree_right_rotateB7v160006IPNS_16__tree_node_baseIPvEEEEvT_, symObjAddr: 0x5220, symBinAddr: 0x1000071E4, symSize: 0xCC }
  - { offsetInCU: 0xA3BE, offset: 0xA3BE, size: 0x8, addend: 0x0, symName: __ZSt28__throw_bad_array_new_lengthB7v160006v, symObjAddr: 0x1588, symBinAddr: 0x10000354C, symSize: 0x34 }
  - { offsetInCU: 0xCDDC, offset: 0xCDDC, size: 0x8, addend: 0x0, symName: _main, symObjAddr: 0x0, symBinAddr: 0x100001FC4, symSize: 0x440 }
  - { offsetInCU: 0xCF69, offset: 0xCF69, size: 0x8, addend: 0x0, symName: __ZNSt3__16vectorIiNS_9allocatorIiEEEC1B7v160006ESt16initializer_listIiE, symObjAddr: 0x440, symBinAddr: 0x100002404, symSize: 0x3C }
  - { offsetInCU: 0xCFA3, offset: 0xCFA3, size: 0x8, addend: 0x0, symName: __Z10findMaxMinRKNSt3__16vectorIiNS_9allocatorIiEEEE, symObjAddr: 0x47C, symBinAddr: 0x100002440, symSize: 0x130 }
  - { offsetInCU: 0xCFDE, offset: 0xCFDE, size: 0x8, addend: 0x0, symName: __ZNSt3__113basic_ostreamIcNS_11char_traitsIcEEElsB7v160006EPFRS3_S4_E, symObjAddr: 0x5F4, symBinAddr: 0x1000025B8, symSize: 0x2C }
  - { offsetInCU: 0xD012, offset: 0xD012, size: 0x8, addend: 0x0, symName: __ZNSt3__16vectorIiNS_9allocatorIiEEE5beginB7v160006Ev, symObjAddr: 0x678, symBinAddr: 0x10000263C, symSize: 0x30 }
  - { offsetInCU: 0xD03A, offset: 0xD03A, size: 0x8, addend: 0x0, symName: __ZNSt3__16vectorIiNS_9allocatorIiEEE3endB7v160006Ev, symObjAddr: 0x6A8, symBinAddr: 0x10000266C, symSize: 0x30 }
  - { offsetInCU: 0xD062, offset: 0xD062, size: 0x8, addend: 0x0, symName: __ZNKSt3__111__wrap_iterIPiEdeB7v160006Ev, symObjAddr: 0x70C, symBinAddr: 0x1000026D0, symSize: 0x18 }
  - { offsetInCU: 0xD088, offset: 0xD088, size: 0x8, addend: 0x0, symName: __ZNSt3__111__wrap_iterIPiEppB7v160006Ev, symObjAddr: 0x724, symBinAddr: 0x1000026E8, symSize: 0x20 }
  - { offsetInCU: 0xD0AE, offset: 0xD0AE, size: 0x8, addend: 0x0, symName: __ZNSt3__16vectorIiNS_9allocatorIiEEEaSB7v160006ESt16initializer_listIiE, symObjAddr: 0x744, symBinAddr: 0x100002708, symSize: 0x60 }
  - { offsetInCU: 0xD0E3, offset: 0xD0E3, size: 0x8, addend: 0x0, symName: __ZNSt3__16vectorIiNS_9allocatorIiEEEaSB7v160006EOS3_, symObjAddr: 0x7A4, symBinAddr: 0x100002768, symSize: 0x34 }
  - { offsetInCU: 0xD11A, offset: 0xD11A, size: 0x8, addend: 0x0, symName: __ZNSt3__16vectorIiNS_9allocatorIiEEED1B7v160006Ev, symObjAddr: 0x7D8, symBinAddr: 0x10000279C, symSize: 0x2C }
  - { offsetInCU: 0xD144, offset: 0xD144, size: 0x8, addend: 0x0, symName: __ZNKSt3__16vectorIiNS_9allocatorIiEEE5beginB7v160006Ev, symObjAddr: 0x804, symBinAddr: 0x1000027C8, symSize: 0x30 }
  - { offsetInCU: 0xD16C, offset: 0xD16C, size: 0x8, addend: 0x0, symName: __ZNSt3__13setIiNS_4lessIiEENS_9allocatorIiEEEC1B7v160006INS_11__wrap_iterIPKiEEEET_SB_RKS2_, symObjAddr: 0x860, symBinAddr: 0x100002824, symSize: 0x44 }
  - { offsetInCU: 0xD1CC, offset: 0xD1CC, size: 0x8, addend: 0x0, symName: __ZNSt3__13setIiNS_4lessIiEENS_9allocatorIiEEE6rbeginB7v160006Ev, symObjAddr: 0x8A4, symBinAddr: 0x100002868, symSize: 0x44 }
  - { offsetInCU: 0xD1F2, offset: 0xD1F2, size: 0x8, addend: 0x0, symName: __ZNKSt3__116reverse_iteratorINS_21__tree_const_iteratorIiPNS_11__tree_nodeIiPvEElEEEdeB7v160006Ev, symObjAddr: 0x8E8, symBinAddr: 0x1000028AC, symSize: 0x34 }
  - { offsetInCU: 0xD226, offset: 0xD226, size: 0x8, addend: 0x0, symName: __ZNSt3__13setIiNS_4lessIiEENS_9allocatorIiEEE5beginB7v160006Ev, symObjAddr: 0x91C, symBinAddr: 0x1000028E0, symSize: 0x38 }
  - { offsetInCU: 0xD24C, offset: 0xD24C, size: 0x8, addend: 0x0, symName: __ZNKSt3__121__tree_const_iteratorIiPNS_11__tree_nodeIiPvEElEdeB7v160006Ev, symObjAddr: 0x954, symBinAddr: 0x100002918, symSize: 0x28 }
  - { offsetInCU: 0xD272, offset: 0xD272, size: 0x8, addend: 0x0, symName: __ZNSt3__13setIiNS_4lessIiEENS_9allocatorIiEEED1B7v160006Ev, symObjAddr: 0x97C, symBinAddr: 0x100002940, symSize: 0x2C }
  - { offsetInCU: 0xD29C, offset: 0xD29C, size: 0x8, addend: 0x0, symName: __ZNKSt3__111__wrap_iterIPiE4baseB7v160006Ev, symObjAddr: 0x9F0, symBinAddr: 0x1000029B4, symSize: 0x18 }
  - { offsetInCU: 0xD2C2, offset: 0xD2C2, size: 0x8, addend: 0x0, symName: __ZNKSt3__16vectorIiNS_9allocatorIiEEE3endB7v160006Ev, symObjAddr: 0xA08, symBinAddr: 0x1000029CC, symSize: 0x30 }
  - { offsetInCU: 0xD2EA, offset: 0xD2EA, size: 0x8, addend: 0x0, symName: __ZNKSt3__16vectorIiNS_9allocatorIiEEE11__make_iterB7v160006EPKi, symObjAddr: 0xA38, symBinAddr: 0x1000029FC, symSize: 0x34 }
  - { offsetInCU: 0xD31F, offset: 0xD31F, size: 0x8, addend: 0x0, symName: __ZNSt3__111__wrap_iterIPKiEC1B7v160006EPKvS2_, symObjAddr: 0xA6C, symBinAddr: 0x100002A30, symSize: 0x3C }
  - { offsetInCU: 0xD365, offset: 0xD365, size: 0x8, addend: 0x0, symName: __ZNSt3__111__wrap_iterIPKiEC2B7v160006EPKvS2_, symObjAddr: 0xAA8, symBinAddr: 0x100002A6C, symSize: 0x24 }
  - { offsetInCU: 0xD3AB, offset: 0xD3AB, size: 0x8, addend: 0x0, symName: __ZNSt3__121__tree_const_iteratorIiPNS_11__tree_nodeIiPvEElEmmB7v160006Ev, symObjAddr: 0xACC, symBinAddr: 0x100002A90, symSize: 0x38 }
  - { offsetInCU: 0xD3D1, offset: 0xD3D1, size: 0x8, addend: 0x0, symName: __ZNKSt3__116__tree_node_baseIPvE15__parent_unsafeB7v160006Ev, symObjAddr: 0xC14, symBinAddr: 0x100002BD8, symSize: 0x18 }
  - { offsetInCU: 0xD3F7, offset: 0xD3F7, size: 0x8, addend: 0x0, symName: __ZNSt3__16vectorIiNS_9allocatorIiEEEC2B7v160006ESt16initializer_listIiE, symObjAddr: 0xC38, symBinAddr: 0x100002BFC, symSize: 0x124 }
  - { offsetInCU: 0xD452, offset: 0xD452, size: 0x8, addend: 0x0, symName: __ZNSt3__117__compressed_pairIPiNS_9allocatorIiEEEC1B7v160006IDnNS_18__default_init_tagEEEOT_OT0_, symObjAddr: 0xD5C, symBinAddr: 0x100002D20, symSize: 0x3C }
  - { offsetInCU: 0xD4AA, offset: 0xD4AA, size: 0x8, addend: 0x0, symName: __ZNSt3__16vectorIiNS_9allocatorIiEEE16__destroy_vectorC1ERS3_, symObjAddr: 0xDD8, symBinAddr: 0x100002D9C, symSize: 0x34 }
  - { offsetInCU: 0xD4E3, offset: 0xD4E3, size: 0x8, addend: 0x0, symName: __ZNKSt16initializer_listIiE4sizeB7v160006Ev, symObjAddr: 0xE1C, symBinAddr: 0x100002DE0, symSize: 0x18 }
  - { offsetInCU: 0xD509, offset: 0xD509, size: 0x8, addend: 0x0, symName: __ZNSt3__16vectorIiNS_9allocatorIiEEE11__vallocateB7v160006Em, symObjAddr: 0xE34, symBinAddr: 0x100002DF8, symSize: 0xAC }
  - { offsetInCU: 0xD54D, offset: 0xD54D, size: 0x8, addend: 0x0, symName: __ZNSt3__16vectorIiNS_9allocatorIiEEE18__construct_at_endIPKiLi0EEEvT_S7_m, symObjAddr: 0xEE0, symBinAddr: 0x100002EA4, symSize: 0x8C }
  - { offsetInCU: 0xD5C0, offset: 0xD5C0, size: 0x8, addend: 0x0, symName: __ZNKSt16initializer_listIiE5beginB7v160006Ev, symObjAddr: 0xF6C, symBinAddr: 0x100002F30, symSize: 0x18 }
  - { offsetInCU: 0xD5E6, offset: 0xD5E6, size: 0x8, addend: 0x0, symName: __ZNKSt16initializer_listIiE3endB7v160006Ev, symObjAddr: 0xF84, symBinAddr: 0x100002F48, symSize: 0x20 }
  - { offsetInCU: 0xD60C, offset: 0xD60C, size: 0x8, addend: 0x0, symName: __ZNSt3__128__exception_guard_exceptionsINS_6vectorIiNS_9allocatorIiEEE16__destroy_vectorEE10__completeB7v160006Ev, symObjAddr: 0xFA4, symBinAddr: 0x100002F68, symSize: 0x1C }
  - { offsetInCU: 0xD632, offset: 0xD632, size: 0x8, addend: 0x0, symName: __ZNSt3__128__exception_guard_exceptionsINS_6vectorIiNS_9allocatorIiEEE16__destroy_vectorEED1B7v160006Ev, symObjAddr: 0xFC0, symBinAddr: 0x100002F84, symSize: 0x2C }
  - { offsetInCU: 0xD65C, offset: 0xD65C, size: 0x8, addend: 0x0, symName: __ZNSt3__117__compressed_pairIPiNS_9allocatorIiEEEC2B7v160006IDnNS_18__default_init_tagEEEOT_OT0_, symObjAddr: 0xFEC, symBinAddr: 0x100002FB0, symSize: 0x40 }
  - { offsetInCU: 0xD6B4, offset: 0xD6B4, size: 0x8, addend: 0x0, symName: __ZNSt3__122__compressed_pair_elemIPiLi0ELb0EEC2B7v160006IDnvEEOT_, symObjAddr: 0x102C, symBinAddr: 0x100002FF0, symSize: 0x1C }
  - { offsetInCU: 0xD6F6, offset: 0xD6F6, size: 0x8, addend: 0x0, symName: __ZNSt3__122__compressed_pair_elemINS_9allocatorIiEELi1ELb1EEC2B7v160006ENS_18__default_init_tagE, symObjAddr: 0x1048, symBinAddr: 0x10000300C, symSize: 0x2C }
  - { offsetInCU: 0xD72A, offset: 0xD72A, size: 0x8, addend: 0x0, symName: __ZNSt3__19allocatorIiEC2B7v160006Ev, symObjAddr: 0x1074, symBinAddr: 0x100003038, symSize: 0x2C }
  - { offsetInCU: 0xD754, offset: 0xD754, size: 0x8, addend: 0x0, symName: __ZNSt3__116__non_trivial_ifILb1ENS_9allocatorIiEEEC2B7v160006Ev, symObjAddr: 0x10A0, symBinAddr: 0x100003064, symSize: 0x14 }
  - { offsetInCU: 0xD77E, offset: 0xD77E, size: 0x8, addend: 0x0, symName: __ZNSt3__128__exception_guard_exceptionsINS_6vectorIiNS_9allocatorIiEEE16__destroy_vectorEEC1B7v160006ES5_, symObjAddr: 0x10B4, symBinAddr: 0x100003078, symSize: 0x34 }
  - { offsetInCU: 0xD7B6, offset: 0xD7B6, size: 0x8, addend: 0x0, symName: __ZNSt3__128__exception_guard_exceptionsINS_6vectorIiNS_9allocatorIiEEE16__destroy_vectorEEC2B7v160006ES5_, symObjAddr: 0x10E8, symBinAddr: 0x1000030AC, symSize: 0x24 }
  - { offsetInCU: 0xD7EE, offset: 0xD7EE, size: 0x8, addend: 0x0, symName: __ZNSt3__16vectorIiNS_9allocatorIiEEE16__destroy_vectorC2ERS3_, symObjAddr: 0x110C, symBinAddr: 0x1000030D0, symSize: 0x20 }
  - { offsetInCU: 0xD827, offset: 0xD827, size: 0x8, addend: 0x0, symName: __ZNKSt3__16vectorIiNS_9allocatorIiEEE8max_sizeEv, symObjAddr: 0x112C, symBinAddr: 0x1000030F0, symSize: 0x60 }
  - { offsetInCU: 0xD84F, offset: 0xD84F, size: 0x8, addend: 0x0, symName: __ZNKSt3__16vectorIiNS_9allocatorIiEEE20__throw_length_errorB7v160006Ev, symObjAddr: 0x118C, symBinAddr: 0x100003150, symSize: 0x1C }
  - { offsetInCU: 0xD875, offset: 0xD875, size: 0x8, addend: 0x0, symName: __ZNSt3__16vectorIiNS_9allocatorIiEEE7__allocB7v160006Ev, symObjAddr: 0x11E8, symBinAddr: 0x1000031AC, symSize: 0x28 }
  - { offsetInCU: 0xD89B, offset: 0xD89B, size: 0x8, addend: 0x0, symName: __ZNSt3__16vectorIiNS_9allocatorIiEEE9__end_capB7v160006Ev, symObjAddr: 0x1210, symBinAddr: 0x1000031D4, symSize: 0x28 }
  - { offsetInCU: 0xD8C1, offset: 0xD8C1, size: 0x8, addend: 0x0, symName: __ZNKSt3__16vectorIiNS_9allocatorIiEEE14__annotate_newB7v160006Em, symObjAddr: 0x1238, symBinAddr: 0x1000031FC, symSize: 0xAC }
  - { offsetInCU: 0xD900, offset: 0xD900, size: 0x8, addend: 0x0, symName: __ZNSt3__116allocator_traitsINS_9allocatorIiEEE8max_sizeB7v160006IS2_vEEmRKS2_, symObjAddr: 0x1310, symBinAddr: 0x1000032D4, symSize: 0x24 }
  - { offsetInCU: 0xD92E, offset: 0xD92E, size: 0x8, addend: 0x0, symName: __ZNKSt3__16vectorIiNS_9allocatorIiEEE7__allocB7v160006Ev, symObjAddr: 0x1334, symBinAddr: 0x1000032F8, symSize: 0x28 }
  - { offsetInCU: 0xD954, offset: 0xD954, size: 0x8, addend: 0x0, symName: __ZNSt3__114numeric_limitsIlE3maxB7v160006Ev, symObjAddr: 0x135C, symBinAddr: 0x100003320, symSize: 0x14 }
  - { offsetInCU: 0xD972, offset: 0xD972, size: 0x8, addend: 0x0, symName: __ZNKSt3__16__lessImmEclB7v160006ERKmS3_, symObjAddr: 0x13C4, symBinAddr: 0x100003388, symSize: 0x34 }
  - { offsetInCU: 0xD9B4, offset: 0xD9B4, size: 0x8, addend: 0x0, symName: __ZNKSt3__19allocatorIiE8max_sizeB7v160006Ev, symObjAddr: 0x13F8, symBinAddr: 0x1000033BC, symSize: 0x14 }
  - { offsetInCU: 0xD9DA, offset: 0xD9DA, size: 0x8, addend: 0x0, symName: __ZNKSt3__117__compressed_pairIPiNS_9allocatorIiEEE6secondB7v160006Ev, symObjAddr: 0x140C, symBinAddr: 0x1000033D0, symSize: 0x24 }
  - { offsetInCU: 0xDA00, offset: 0xDA00, size: 0x8, addend: 0x0, symName: __ZNKSt3__122__compressed_pair_elemINS_9allocatorIiEELi1ELb1EE5__getB7v160006Ev, symObjAddr: 0x1430, symBinAddr: 0x1000033F4, symSize: 0x14 }
  - { offsetInCU: 0xDA26, offset: 0xDA26, size: 0x8, addend: 0x0, symName: __ZNSt3__123__libcpp_numeric_limitsIlLb1EE3maxB7v160006Ev, symObjAddr: 0x1444, symBinAddr: 0x100003408, symSize: 0x8 }
  - { offsetInCU: 0xDA3A, offset: 0xDA3A, size: 0x8, addend: 0x0, symName: __ZNSt12length_errorC1B7v160006EPKc, symObjAddr: 0x14B0, symBinAddr: 0x100003474, symSize: 0x34 }
  - { offsetInCU: 0xDA72, offset: 0xDA72, size: 0x8, addend: 0x0, symName: __ZNSt12length_errorC2B7v160006EPKc, symObjAddr: 0x14E4, symBinAddr: 0x1000034A8, symSize: 0x4C }
  - { offsetInCU: 0xDAAA, offset: 0xDAAA, size: 0x8, addend: 0x0, symName: __ZNSt3__19allocatorIiE8allocateB7v160006Em, symObjAddr: 0x1530, symBinAddr: 0x1000034F4, symSize: 0x58 }
  - { offsetInCU: 0xDADE, offset: 0xDADE, size: 0x8, addend: 0x0, symName: __ZNSt3__117__compressed_pairIPiNS_9allocatorIiEEE6secondB7v160006Ev, symObjAddr: 0x168C, symBinAddr: 0x100003650, symSize: 0x24 }
  - { offsetInCU: 0xDB04, offset: 0xDB04, size: 0x8, addend: 0x0, symName: __ZNSt3__122__compressed_pair_elemINS_9allocatorIiEELi1ELb1EE5__getB7v160006Ev, symObjAddr: 0x16B0, symBinAddr: 0x100003674, symSize: 0x14 }
  - { offsetInCU: 0xDB2A, offset: 0xDB2A, size: 0x8, addend: 0x0, symName: __ZNSt3__117__compressed_pairIPiNS_9allocatorIiEEE5firstB7v160006Ev, symObjAddr: 0x16C4, symBinAddr: 0x100003688, symSize: 0x24 }
  - { offsetInCU: 0xDB50, offset: 0xDB50, size: 0x8, addend: 0x0, symName: __ZNSt3__122__compressed_pair_elemIPiLi0ELb0EE5__getB7v160006Ev, symObjAddr: 0x16E8, symBinAddr: 0x1000036AC, symSize: 0x14 }
  - { offsetInCU: 0xDB76, offset: 0xDB76, size: 0x8, addend: 0x0, symName: __ZNKSt3__16vectorIiNS_9allocatorIiEEE31__annotate_contiguous_containerB7v160006EPKvS5_S5_S5_, symObjAddr: 0x16FC, symBinAddr: 0x1000036C0, symSize: 0x20 }
  - { offsetInCU: 0xDBC8, offset: 0xDBC8, size: 0x8, addend: 0x0, symName: __ZNKSt3__16vectorIiNS_9allocatorIiEEE4dataB7v160006Ev, symObjAddr: 0x171C, symBinAddr: 0x1000036E0, symSize: 0x28 }
  - { offsetInCU: 0xDBEE, offset: 0xDBEE, size: 0x8, addend: 0x0, symName: __ZNKSt3__16vectorIiNS_9allocatorIiEEE8capacityB7v160006Ev, symObjAddr: 0x1744, symBinAddr: 0x100003708, symSize: 0x40 }
  - { offsetInCU: 0xDC14, offset: 0xDC14, size: 0x8, addend: 0x0, symName: __ZNKSt3__16vectorIiNS_9allocatorIiEEE9__end_capB7v160006Ev, symObjAddr: 0x1798, symBinAddr: 0x10000375C, symSize: 0x28 }
  - { offsetInCU: 0xDC3A, offset: 0xDC3A, size: 0x8, addend: 0x0, symName: __ZNKSt3__117__compressed_pairIPiNS_9allocatorIiEEE5firstB7v160006Ev, symObjAddr: 0x17C0, symBinAddr: 0x100003784, symSize: 0x24 }
  - { offsetInCU: 0xDC60, offset: 0xDC60, size: 0x8, addend: 0x0, symName: __ZNKSt3__122__compressed_pair_elemIPiLi0ELb0EE5__getB7v160006Ev, symObjAddr: 0x17E4, symBinAddr: 0x1000037A8, symSize: 0x14 }
  - { offsetInCU: 0xDC9F, offset: 0xDC9F, size: 0x8, addend: 0x0, symName: __ZNSt3__16vectorIiNS_9allocatorIiEEE21_ConstructTransactionC1B7v160006ERS3_m, symObjAddr: 0x17F8, symBinAddr: 0x1000037BC, symSize: 0x3C }
  - { offsetInCU: 0xDCE7, offset: 0xDCE7, size: 0x8, addend: 0x0, symName: __ZNSt3__16vectorIiNS_9allocatorIiEEE21_ConstructTransactionD1B7v160006Ev, symObjAddr: 0x186C, symBinAddr: 0x100003830, symSize: 0x2C }
  - { offsetInCU: 0xDD11, offset: 0xDD11, size: 0x8, addend: 0x0, symName: __ZNSt3__16vectorIiNS_9allocatorIiEEE21_ConstructTransactionC2B7v160006ERS3_m, symObjAddr: 0x1898, symBinAddr: 0x10000385C, symSize: 0x44 }
  - { offsetInCU: 0xDD7C, offset: 0xDD7C, size: 0x8, addend: 0x0, symName: __ZNKSt3__114__copy_trivialclB7v160006IKiiLi0EEENS_4pairIPT_PT0_EES5_S5_S7_, symObjAddr: 0x1AB8, symBinAddr: 0x100003A7C, symSize: 0x48 }
  - { offsetInCU: 0xDE02, offset: 0xDE02, size: 0x8, addend: 0x0, symName: __ZNSt3__14pairIPKiS2_EC1B7v160006IS2_S2_LPv0EEEOT_OT0_, symObjAddr: 0x1C20, symBinAddr: 0x100003BE4, symSize: 0x3C }
  - { offsetInCU: 0xDE60, offset: 0xDE60, size: 0x8, addend: 0x0, symName: __ZNSt3__14pairIPKiS2_EC2B7v160006IS2_S2_LPv0EEEOT_OT0_, symObjAddr: 0x1C5C, symBinAddr: 0x100003C20, symSize: 0x34 }
  - { offsetInCU: 0xDEBE, offset: 0xDEBE, size: 0x8, addend: 0x0, symName: __ZNSt3__118__unwrap_iter_implIPKiLb1EE8__unwrapB7v160006ES2_, symObjAddr: 0x1C90, symBinAddr: 0x100003C54, symSize: 0x24 }
  - { offsetInCU: 0xDEEB, offset: 0xDEEB, size: 0x8, addend: 0x0, symName: __ZNSt3__14pairIPKiPiEC1B7v160006IRS2_S3_LPv0EEEOT_OT0_, symObjAddr: 0x1D84, symBinAddr: 0x100003D48, symSize: 0x3C }
  - { offsetInCU: 0xDF49, offset: 0xDF49, size: 0x8, addend: 0x0, symName: __ZNSt3__14pairIPKiPiEC2B7v160006IRS2_S3_LPv0EEEOT_OT0_, symObjAddr: 0x1DC0, symBinAddr: 0x100003D84, symSize: 0x34 }
  - { offsetInCU: 0xDFA7, offset: 0xDFA7, size: 0x8, addend: 0x0, symName: __ZNSt3__118__unwrap_iter_implIPiLb1EE8__unwrapB7v160006ES1_, symObjAddr: 0x1DF4, symBinAddr: 0x100003DB8, symSize: 0x24 }
  - { offsetInCU: 0xDFCA, offset: 0xDFCA, size: 0x8, addend: 0x0, symName: __ZNSt3__14pairIPKiPiEC1B7v160006IS2_S3_LPv0EEEOT_OT0_, symObjAddr: 0x1E18, symBinAddr: 0x100003DDC, symSize: 0x3C }
  - { offsetInCU: 0xE028, offset: 0xE028, size: 0x8, addend: 0x0, symName: __ZNSt3__14pairIPKiPiEC2B7v160006IS2_S3_LPv0EEEOT_OT0_, symObjAddr: 0x1E54, symBinAddr: 0x100003E18, symSize: 0x34 }
  - { offsetInCU: 0xE086, offset: 0xE086, size: 0x8, addend: 0x0, symName: __ZNSt3__118__unwrap_iter_implIPKiLb1EE8__rewrapB7v160006ES2_S2_, symObjAddr: 0x1EC4, symBinAddr: 0x100003E88, symSize: 0x50 }
  - { offsetInCU: 0xE0B7, offset: 0xE0B7, size: 0x8, addend: 0x0, symName: __ZNSt3__118__unwrap_iter_implIPiLb1EE8__rewrapB7v160006ES1_S1_, symObjAddr: 0x1F14, symBinAddr: 0x100003ED8, symSize: 0x50 }
  - { offsetInCU: 0xE0E8, offset: 0xE0E8, size: 0x8, addend: 0x0, symName: __ZNSt3__16vectorIiNS_9allocatorIiEEE21_ConstructTransactionD2B7v160006Ev, symObjAddr: 0x1F64, symBinAddr: 0x100003F28, symSize: 0x20 }
  - { offsetInCU: 0xE112, offset: 0xE112, size: 0x8, addend: 0x0, symName: __ZNSt3__128__exception_guard_exceptionsINS_6vectorIiNS_9allocatorIiEEE16__destroy_vectorEED2B7v160006Ev, symObjAddr: 0x1F84, symBinAddr: 0x100003F48, symSize: 0x50 }
  - { offsetInCU: 0xE13C, offset: 0xE13C, size: 0x8, addend: 0x0, symName: __ZNSt3__16vectorIiNS_9allocatorIiEEE16__destroy_vectorclB7v160006Ev, symObjAddr: 0x1FD4, symBinAddr: 0x100003F98, symSize: 0x9C }
  - { offsetInCU: 0xE162, offset: 0xE162, size: 0x8, addend: 0x0, symName: __ZNKSt3__16vectorIiNS_9allocatorIiEEE17__annotate_deleteB7v160006Ev, symObjAddr: 0x2070, symBinAddr: 0x100004034, symSize: 0xB8 }
  - { offsetInCU: 0xE188, offset: 0xE188, size: 0x8, addend: 0x0, symName: __ZNSt3__16vectorIiNS_9allocatorIiEEE7__clearB7v160006Ev, symObjAddr: 0x2138, symBinAddr: 0x1000040FC, symSize: 0x28 }
  - { offsetInCU: 0xE1AE, offset: 0xE1AE, size: 0x8, addend: 0x0, symName: __ZNSt3__116allocator_traitsINS_9allocatorIiEEE10deallocateB7v160006ERS2_Pim, symObjAddr: 0x2160, symBinAddr: 0x100004124, symSize: 0x34 }
  - { offsetInCU: 0xE1F0, offset: 0xE1F0, size: 0x8, addend: 0x0, symName: __ZNKSt3__16vectorIiNS_9allocatorIiEEE4sizeB7v160006Ev, symObjAddr: 0x2194, symBinAddr: 0x100004158, symSize: 0x28 }
  - { offsetInCU: 0xE216, offset: 0xE216, size: 0x8, addend: 0x0, symName: __ZNSt3__16vectorIiNS_9allocatorIiEEE22__base_destruct_at_endB7v160006EPi, symObjAddr: 0x21BC, symBinAddr: 0x100004180, symSize: 0x8C }
  - { offsetInCU: 0xE25A, offset: 0xE25A, size: 0x8, addend: 0x0, symName: __ZNSt3__116allocator_traitsINS_9allocatorIiEEE7destroyB7v160006IivEEvRS2_PT_, symObjAddr: 0x2248, symBinAddr: 0x10000420C, symSize: 0x2C }
  - { offsetInCU: 0xE297, offset: 0xE297, size: 0x8, addend: 0x0, symName: __ZNSt3__19allocatorIiE7destroyB7v160006EPi, symObjAddr: 0x2274, symBinAddr: 0x100004238, symSize: 0x14 }
  - { offsetInCU: 0xE2CB, offset: 0xE2CB, size: 0x8, addend: 0x0, symName: __ZNSt3__19allocatorIiE10deallocateB7v160006EPim, symObjAddr: 0x2288, symBinAddr: 0x10000424C, symSize: 0x40 }
  - { offsetInCU: 0xE30D, offset: 0xE30D, size: 0x8, addend: 0x0, symName: __ZNSt3__16vectorIiNS_9allocatorIiEEED2B7v160006Ev, symObjAddr: 0x23D0, symBinAddr: 0x100004394, symSize: 0x44 }
  - { offsetInCU: 0xE337, offset: 0xE337, size: 0x8, addend: 0x0, symName: __ZNSt3__111char_traitsIcE6lengthEPKc, symObjAddr: 0x2600, symBinAddr: 0x1000045C4, symSize: 0x34 }
  - { offsetInCU: 0xE378, offset: 0xE378, size: 0x8, addend: 0x0, symName: __ZNKSt3__113basic_ostreamIcNS_11char_traitsIcEEE6sentrycvbB7v160006Ev, symObjAddr: 0x2634, symBinAddr: 0x1000045F8, symSize: 0x1C }
  - { offsetInCU: 0xE39E, offset: 0xE39E, size: 0x8, addend: 0x0, symName: __ZNSt3__119ostreambuf_iteratorIcNS_11char_traitsIcEEEC1B7v160006ERNS_13basic_ostreamIcS2_EE, symObjAddr: 0x2890, symBinAddr: 0x100004854, symSize: 0x34 }
  - { offsetInCU: 0xE3D6, offset: 0xE3D6, size: 0x8, addend: 0x0, symName: __ZNKSt3__18ios_base5flagsB7v160006Ev, symObjAddr: 0x28C4, symBinAddr: 0x100004888, symSize: 0x18 }
  - { offsetInCU: 0xE3FE, offset: 0xE3FE, size: 0x8, addend: 0x0, symName: __ZNKSt3__19basic_iosIcNS_11char_traitsIcEEE4fillB7v160006Ev, symObjAddr: 0x28DC, symBinAddr: 0x1000048A0, symSize: 0x64 }
  - { offsetInCU: 0xE426, offset: 0xE426, size: 0x8, addend: 0x0, symName: __ZNKSt3__119ostreambuf_iteratorIcNS_11char_traitsIcEEE6failedB7v160006Ev, symObjAddr: 0x2940, symBinAddr: 0x100004904, symSize: 0x24 }
  - { offsetInCU: 0xE44C, offset: 0xE44C, size: 0x8, addend: 0x0, symName: __ZNSt3__19basic_iosIcNS_11char_traitsIcEEE8setstateB7v160006Ej, symObjAddr: 0x2964, symBinAddr: 0x100004928, symSize: 0x2C }
  - { offsetInCU: 0xE481, offset: 0xE481, size: 0x8, addend: 0x0, symName: __ZNKSt3__18ios_base5widthB7v160006Ev, symObjAddr: 0x2990, symBinAddr: 0x100004954, symSize: 0x18 }
  - { offsetInCU: 0xE4A9, offset: 0xE4A9, size: 0x8, addend: 0x0, symName: __ZNSt3__115basic_streambufIcNS_11char_traitsIcEEE5sputnB7v160006EPKcl, symObjAddr: 0x29A8, symBinAddr: 0x10000496C, symSize: 0x3C }
  - { offsetInCU: 0xE4EB, offset: 0xE4EB, size: 0x8, addend: 0x0, symName: __ZNSt3__112basic_stringIcNS_11char_traitsIcEENS_9allocatorIcEEEC1B7v160006Emc, symObjAddr: 0x29E4, symBinAddr: 0x1000049A8, symSize: 0x3C }
  - { offsetInCU: 0xE533, offset: 0xE533, size: 0x8, addend: 0x0, symName: __ZNSt3__112basic_stringIcNS_11char_traitsIcEENS_9allocatorIcEEE4dataB7v160006Ev, symObjAddr: 0x2A20, symBinAddr: 0x1000049E4, symSize: 0x28 }
  - { offsetInCU: 0xE559, offset: 0xE559, size: 0x8, addend: 0x0, symName: __ZNSt3__18ios_base5widthB7v160006El, symObjAddr: 0x2A48, symBinAddr: 0x100004A0C, symSize: 0x2C }
  - { offsetInCU: 0xE59F, offset: 0xE59F, size: 0x8, addend: 0x0, symName: __ZNSt3__112basic_stringIcNS_11char_traitsIcEENS_9allocatorIcEEEC2B7v160006Emc, symObjAddr: 0x2A74, symBinAddr: 0x100004A38, symSize: 0x54 }
  - { offsetInCU: 0xE5E7, offset: 0xE5E7, size: 0x8, addend: 0x0, symName: __ZNSt3__117__compressed_pairINS_12basic_stringIcNS_11char_traitsIcEENS_9allocatorIcEEE5__repES5_EC1B7v160006INS_18__default_init_tagESA_EEOT_OT0_, symObjAddr: 0x2AC8, symBinAddr: 0x100004A8C, symSize: 0x3C }
  - { offsetInCU: 0xE63F, offset: 0xE63F, size: 0x8, addend: 0x0, symName: __ZNSt3__117__compressed_pairINS_12basic_stringIcNS_11char_traitsIcEENS_9allocatorIcEEE5__repES5_EC2B7v160006INS_18__default_init_tagESA_EEOT_OT0_, symObjAddr: 0x2B14, symBinAddr: 0x100004AD8, symSize: 0x3C }
  - { offsetInCU: 0xE697, offset: 0xE697, size: 0x8, addend: 0x0, symName: __ZNSt3__122__compressed_pair_elemINS_12basic_stringIcNS_11char_traitsIcEENS_9allocatorIcEEE5__repELi0ELb0EEC2B7v160006ENS_18__default_init_tagE, symObjAddr: 0x2B50, symBinAddr: 0x100004B14, symSize: 0x14 }
  - { offsetInCU: 0xE6CB, offset: 0xE6CB, size: 0x8, addend: 0x0, symName: __ZNSt3__122__compressed_pair_elemINS_9allocatorIcEELi1ELb1EEC2B7v160006ENS_18__default_init_tagE, symObjAddr: 0x2B64, symBinAddr: 0x100004B28, symSize: 0x2C }
  - { offsetInCU: 0xE6FF, offset: 0xE6FF, size: 0x8, addend: 0x0, symName: __ZNSt3__19allocatorIcEC2B7v160006Ev, symObjAddr: 0x2B90, symBinAddr: 0x100004B54, symSize: 0x2C }
  - { offsetInCU: 0xE729, offset: 0xE729, size: 0x8, addend: 0x0, symName: __ZNSt3__116__non_trivial_ifILb1ENS_9allocatorIcEEEC2B7v160006Ev, symObjAddr: 0x2BBC, symBinAddr: 0x100004B80, symSize: 0x14 }
  - { offsetInCU: 0xE753, offset: 0xE753, size: 0x8, addend: 0x0, symName: __ZNSt3__112basic_stringIcNS_11char_traitsIcEENS_9allocatorIcEEE13__get_pointerB7v160006Ev, symObjAddr: 0x2BE4, symBinAddr: 0x100004BA8, symSize: 0x54 }
  - { offsetInCU: 0xE779, offset: 0xE779, size: 0x8, addend: 0x0, symName: __ZNKSt3__112basic_stringIcNS_11char_traitsIcEENS_9allocatorIcEEE9__is_longB7v160006Ev, symObjAddr: 0x2C38, symBinAddr: 0x100004BFC, symSize: 0x38 }
  - { offsetInCU: 0xE79F, offset: 0xE79F, size: 0x8, addend: 0x0, symName: __ZNSt3__112basic_stringIcNS_11char_traitsIcEENS_9allocatorIcEEE18__get_long_pointerB7v160006Ev, symObjAddr: 0x2C70, symBinAddr: 0x100004C34, symSize: 0x28 }
  - { offsetInCU: 0xE7C5, offset: 0xE7C5, size: 0x8, addend: 0x0, symName: __ZNSt3__112basic_stringIcNS_11char_traitsIcEENS_9allocatorIcEEE19__get_short_pointerB7v160006Ev, symObjAddr: 0x2C98, symBinAddr: 0x100004C5C, symSize: 0x28 }
  - { offsetInCU: 0xE7EB, offset: 0xE7EB, size: 0x8, addend: 0x0, symName: __ZNKSt3__117__compressed_pairINS_12basic_stringIcNS_11char_traitsIcEENS_9allocatorIcEEE5__repES5_E5firstB7v160006Ev, symObjAddr: 0x2CC0, symBinAddr: 0x100004C84, symSize: 0x24 }
  - { offsetInCU: 0xE811, offset: 0xE811, size: 0x8, addend: 0x0, symName: __ZNKSt3__122__compressed_pair_elemINS_12basic_stringIcNS_11char_traitsIcEENS_9allocatorIcEEE5__repELi0ELb0EE5__getB7v160006Ev, symObjAddr: 0x2CE4, symBinAddr: 0x100004CA8, symSize: 0x14 }
  - { offsetInCU: 0xE837, offset: 0xE837, size: 0x8, addend: 0x0, symName: __ZNSt3__117__compressed_pairINS_12basic_stringIcNS_11char_traitsIcEENS_9allocatorIcEEE5__repES5_E5firstB7v160006Ev, symObjAddr: 0x2CF8, symBinAddr: 0x100004CBC, symSize: 0x24 }
  - { offsetInCU: 0xE85D, offset: 0xE85D, size: 0x8, addend: 0x0, symName: __ZNSt3__122__compressed_pair_elemINS_12basic_stringIcNS_11char_traitsIcEENS_9allocatorIcEEE5__repELi0ELb0EE5__getB7v160006Ev, symObjAddr: 0x2D1C, symBinAddr: 0x100004CE0, symSize: 0x14 }
  - { offsetInCU: 0xE883, offset: 0xE883, size: 0x8, addend: 0x0, symName: __ZNSt3__114pointer_traitsIPcE10pointer_toB7v160006ERc, symObjAddr: 0x2D30, symBinAddr: 0x100004CF4, symSize: 0x14 }
  - { offsetInCU: 0xE8A6, offset: 0xE8A6, size: 0x8, addend: 0x0, symName: __ZNSt3__119ostreambuf_iteratorIcNS_11char_traitsIcEEEC2B7v160006ERNS_13basic_ostreamIcS2_EE, symObjAddr: 0x2D44, symBinAddr: 0x100004D08, symSize: 0x54 }
  - { offsetInCU: 0xE8DE, offset: 0xE8DE, size: 0x8, addend: 0x0, symName: __ZNKSt3__19basic_iosIcNS_11char_traitsIcEEE5rdbufB7v160006Ev, symObjAddr: 0x2D98, symBinAddr: 0x100004D5C, symSize: 0x24 }
  - { offsetInCU: 0xE906, offset: 0xE906, size: 0x8, addend: 0x0, symName: __ZNKSt3__18ios_base5rdbufB7v160006Ev, symObjAddr: 0x2DBC, symBinAddr: 0x100004D80, symSize: 0x18 }
  - { offsetInCU: 0xE92C, offset: 0xE92C, size: 0x8, addend: 0x0, symName: __ZNSt3__111char_traitsIcE11eq_int_typeEii, symObjAddr: 0x2DD4, symBinAddr: 0x100004D98, symSize: 0x28 }
  - { offsetInCU: 0xE95D, offset: 0xE95D, size: 0x8, addend: 0x0, symName: __ZNSt3__111char_traitsIcE3eofEv, symObjAddr: 0x2DFC, symBinAddr: 0x100004DC0, symSize: 0x8 }
  - { offsetInCU: 0xE971, offset: 0xE971, size: 0x8, addend: 0x0, symName: __ZNKSt3__19basic_iosIcNS_11char_traitsIcEEE5widenB7v160006Ec, symObjAddr: 0x2E04, symBinAddr: 0x100004DC8, symSize: 0x84 }
  - { offsetInCU: 0xE9DF, offset: 0xE9DF, size: 0x8, addend: 0x0, symName: __ZNKSt3__15ctypeIcE5widenB7v160006Ec, symObjAddr: 0x2EB4, symBinAddr: 0x100004E78, symSize: 0x38 }
  - { offsetInCU: 0xEA14, offset: 0xEA14, size: 0x8, addend: 0x0, symName: __ZNSt3__18ios_base8setstateB7v160006Ej, symObjAddr: 0x2EEC, symBinAddr: 0x100004EB0, symSize: 0x34 }
  - { offsetInCU: 0xEA4B, offset: 0xEA4B, size: 0x8, addend: 0x0, symName: __ZNSt3__16vectorIiNS_9allocatorIiEEE11__make_iterB7v160006EPi, symObjAddr: 0x2F44, symBinAddr: 0x100004F08, symSize: 0x34 }
  - { offsetInCU: 0xEA80, offset: 0xEA80, size: 0x8, addend: 0x0, symName: __ZNSt3__111__wrap_iterIPiEC1B7v160006EPKvS1_, symObjAddr: 0x2F78, symBinAddr: 0x100004F3C, symSize: 0x3C }
  - { offsetInCU: 0xEAC6, offset: 0xEAC6, size: 0x8, addend: 0x0, symName: __ZNSt3__111__wrap_iterIPiEC2B7v160006EPKvS1_, symObjAddr: 0x2FB4, symBinAddr: 0x100004F78, symSize: 0x24 }
  - { offsetInCU: 0xEB0C, offset: 0xEB0C, size: 0x8, addend: 0x0, symName: __ZNSt3__16vectorIiNS_9allocatorIiEEE6assignIPKiLi0EEEvT_S7_, symObjAddr: 0x2FD8, symBinAddr: 0x100004F9C, symSize: 0x17C }
  - { offsetInCU: 0xEBAB, offset: 0xEBAB, size: 0x8, addend: 0x0, symName: __ZNSt3__16vectorIiNS_9allocatorIiEEE17__destruct_at_endB7v160006EPi, symObjAddr: 0x31D0, symBinAddr: 0x100005194, symSize: 0x60 }
  - { offsetInCU: 0xEBEF, offset: 0xEBEF, size: 0x8, addend: 0x0, symName: __ZNSt3__16vectorIiNS_9allocatorIiEEE13__vdeallocateEv, symObjAddr: 0x3230, symBinAddr: 0x1000051F4, symSize: 0x8C }
  - { offsetInCU: 0xEC17, offset: 0xEC17, size: 0x8, addend: 0x0, symName: __ZNKSt3__16vectorIiNS_9allocatorIiEEE11__recommendB7v160006Em, symObjAddr: 0x32BC, symBinAddr: 0x100005280, symSize: 0xB4 }
  - { offsetInCU: 0xEC6C, offset: 0xEC6C, size: 0x8, addend: 0x0, symName: __ZNSt3__16vectorIiNS_9allocatorIiEEE27__invalidate_iterators_pastB7v160006EPi, symObjAddr: 0x33E4, symBinAddr: 0x1000053A8, symSize: 0x14 }
  - { offsetInCU: 0xECA3, offset: 0xECA3, size: 0x8, addend: 0x0, symName: __ZNKSt3__16vectorIiNS_9allocatorIiEEE17__annotate_shrinkB7v160006Em, symObjAddr: 0x33F8, symBinAddr: 0x1000053BC, symSize: 0xB4 }
  - { offsetInCU: 0xECD8, offset: 0xECD8, size: 0x8, addend: 0x0, symName: __ZNSt3__16vectorIiNS_9allocatorIiEEE5clearB7v160006Ev, symObjAddr: 0x34AC, symBinAddr: 0x100005470, symSize: 0x54 }
  - { offsetInCU: 0xED0D, offset: 0xED0D, size: 0x8, addend: 0x0, symName: __ZNSt3__16vectorIiNS_9allocatorIiEEE13__move_assignERS3_NS_17integral_constantIbLb1EEE, symObjAddr: 0x3580, symBinAddr: 0x100005544, symSize: 0xAC }
  - { offsetInCU: 0xED4F, offset: 0xED4F, size: 0x8, addend: 0x0, symName: __ZNSt3__16vectorIiNS_9allocatorIiEEE19__move_assign_allocB7v160006ERS3_, symObjAddr: 0x362C, symBinAddr: 0x1000055F0, symSize: 0x2C }
  - { offsetInCU: 0xED84, offset: 0xED84, size: 0x8, addend: 0x0, symName: __ZNSt3__16vectorIiNS_9allocatorIiEEE19__move_assign_allocB7v160006ERS3_NS_17integral_constantIbLb1EEE, symObjAddr: 0x366C, symBinAddr: 0x100005630, symSize: 0x38 }
  - { offsetInCU: 0xEDC4, offset: 0xEDC4, size: 0x8, addend: 0x0, symName: __ZNSt3__13setIiNS_4lessIiEENS_9allocatorIiEEEC2B7v160006INS_11__wrap_iterIPKiEEEET_SB_RKS2_, symObjAddr: 0x36A4, symBinAddr: 0x100005668, symSize: 0x84 }
  - { offsetInCU: 0xEE24, offset: 0xEE24, size: 0x8, addend: 0x0, symName: __ZNSt3__16__treeIiNS_4lessIiEENS_9allocatorIiEEEC1ERKS2_, symObjAddr: 0x3728, symBinAddr: 0x1000056EC, symSize: 0x34 }
  - { offsetInCU: 0xEE5F, offset: 0xEE5F, size: 0x8, addend: 0x0, symName: __ZNSt3__13setIiNS_4lessIiEENS_9allocatorIiEEE6insertB7v160006INS_11__wrap_iterIPKiEEEEvT_SB_, symObjAddr: 0x375C, symBinAddr: 0x100005720, symSize: 0x80 }
  - { offsetInCU: 0xEEC9, offset: 0xEEC9, size: 0x8, addend: 0x0, symName: __ZNSt3__16__treeIiNS_4lessIiEENS_9allocatorIiEEED1Ev, symObjAddr: 0x37DC, symBinAddr: 0x1000057A0, symSize: 0x2C }
  - { offsetInCU: 0xEEF5, offset: 0xEEF5, size: 0x8, addend: 0x0, symName: __ZNSt3__16__treeIiNS_4lessIiEENS_9allocatorIiEEEC2ERKS2_, symObjAddr: 0x3808, symBinAddr: 0x1000057CC, symSize: 0x7C }
  - { offsetInCU: 0xEF30, offset: 0xEF30, size: 0x8, addend: 0x0, symName: __ZNSt3__117__compressed_pairINS_15__tree_end_nodeIPNS_16__tree_node_baseIPvEEEENS_9allocatorINS_11__tree_nodeIiS3_EEEEEC1B7v160006ILb1EvEEv, symObjAddr: 0x3884, symBinAddr: 0x100005848, symSize: 0x2C }
  - { offsetInCU: 0xEF6A, offset: 0xEF6A, size: 0x8, addend: 0x0, symName: __ZNSt3__117__compressed_pairImNS_4lessIiEEEC1B7v160006IiRKS2_EEOT_OT0_, symObjAddr: 0x38B0, symBinAddr: 0x100005874, symSize: 0x3C }
  - { offsetInCU: 0xEFC2, offset: 0xEFC2, size: 0x8, addend: 0x0, symName: __ZNSt3__16__treeIiNS_4lessIiEENS_9allocatorIiEEE10__end_nodeB7v160006Ev, symObjAddr: 0x38EC, symBinAddr: 0x1000058B0, symSize: 0x2C }
  - { offsetInCU: 0xEFE8, offset: 0xEFE8, size: 0x8, addend: 0x0, symName: __ZNSt3__16__treeIiNS_4lessIiEENS_9allocatorIiEEE12__begin_nodeB7v160006Ev, symObjAddr: 0x3918, symBinAddr: 0x1000058DC, symSize: 0x14 }
  - { offsetInCU: 0xF00E, offset: 0xF00E, size: 0x8, addend: 0x0, symName: __ZNSt3__117__compressed_pairINS_15__tree_end_nodeIPNS_16__tree_node_baseIPvEEEENS_9allocatorINS_11__tree_nodeIiS3_EEEEEC2B7v160006ILb1EvEEv, symObjAddr: 0x392C, symBinAddr: 0x1000058F0, symSize: 0x34 }
  - { offsetInCU: 0xF043, offset: 0xF043, size: 0x8, addend: 0x0, symName: __ZNSt3__122__compressed_pair_elemINS_15__tree_end_nodeIPNS_16__tree_node_baseIPvEEEELi0ELb0EEC2B7v160006ENS_16__value_init_tagE, symObjAddr: 0x3960, symBinAddr: 0x100005924, symSize: 0x2C }
  - { offsetInCU: 0xF077, offset: 0xF077, size: 0x8, addend: 0x0, symName: __ZNSt3__122__compressed_pair_elemINS_9allocatorINS_11__tree_nodeIiPvEEEELi1ELb1EEC2B7v160006ENS_16__value_init_tagE, symObjAddr: 0x398C, symBinAddr: 0x100005950, symSize: 0x2C }
  - { offsetInCU: 0xF0AB, offset: 0xF0AB, size: 0x8, addend: 0x0, symName: __ZNSt3__115__tree_end_nodeIPNS_16__tree_node_baseIPvEEEC1B7v160006Ev, symObjAddr: 0x39B8, symBinAddr: 0x10000597C, symSize: 0x2C }
  - { offsetInCU: 0xF0D5, offset: 0xF0D5, size: 0x8, addend: 0x0, symName: __ZNSt3__115__tree_end_nodeIPNS_16__tree_node_baseIPvEEEC2B7v160006Ev, symObjAddr: 0x39E4, symBinAddr: 0x1000059A8, symSize: 0x18 }
  - { offsetInCU: 0xF0FF, offset: 0xF0FF, size: 0x8, addend: 0x0, symName: __ZNSt3__19allocatorINS_11__tree_nodeIiPvEEEC2B7v160006Ev, symObjAddr: 0x39FC, symBinAddr: 0x1000059C0, symSize: 0x2C }
  - { offsetInCU: 0xF129, offset: 0xF129, size: 0x8, addend: 0x0, symName: __ZNSt3__116__non_trivial_ifILb1ENS_9allocatorINS_11__tree_nodeIiPvEEEEEC2B7v160006Ev, symObjAddr: 0x3A28, symBinAddr: 0x1000059EC, symSize: 0x14 }
  - { offsetInCU: 0xF153, offset: 0xF153, size: 0x8, addend: 0x0, symName: __ZNSt3__117__compressed_pairImNS_4lessIiEEEC2B7v160006IiRKS2_EEOT_OT0_, symObjAddr: 0x3A3C, symBinAddr: 0x100005A00, symSize: 0x44 }
  - { offsetInCU: 0xF1AB, offset: 0xF1AB, size: 0x8, addend: 0x0, symName: __ZNSt3__122__compressed_pair_elemImLi0ELb0EEC2B7v160006IivEEOT_, symObjAddr: 0x3A80, symBinAddr: 0x100005A44, symSize: 0x24 }
  - { offsetInCU: 0xF1ED, offset: 0xF1ED, size: 0x8, addend: 0x0, symName: __ZNSt3__122__compressed_pair_elemINS_4lessIiEELi1ELb1EEC2B7v160006IRKS2_vEEOT_, symObjAddr: 0x3AA4, symBinAddr: 0x100005A68, symSize: 0x18 }
  - { offsetInCU: 0xF22F, offset: 0xF22F, size: 0x8, addend: 0x0, symName: __ZNSt3__114pointer_traitsIPNS_15__tree_end_nodeIPNS_16__tree_node_baseIPvEEEEE10pointer_toB7v160006ERS6_, symObjAddr: 0x3ABC, symBinAddr: 0x100005A80, symSize: 0x14 }
  - { offsetInCU: 0xF252, offset: 0xF252, size: 0x8, addend: 0x0, symName: __ZNSt3__117__compressed_pairINS_15__tree_end_nodeIPNS_16__tree_node_baseIPvEEEENS_9allocatorINS_11__tree_nodeIiS3_EEEEE5firstB7v160006Ev, symObjAddr: 0x3AD0, symBinAddr: 0x100005A94, symSize: 0x24 }
  - { offsetInCU: 0xF278, offset: 0xF278, size: 0x8, addend: 0x0, symName: __ZNSt3__122__compressed_pair_elemINS_15__tree_end_nodeIPNS_16__tree_node_baseIPvEEEELi0ELb0EE5__getB7v160006Ev, symObjAddr: 0x3AF4, symBinAddr: 0x100005AB8, symSize: 0x14 }
  - { offsetInCU: 0xF29E, offset: 0xF29E, size: 0x8, addend: 0x0, symName: __ZNKSt3__13setIiNS_4lessIiEENS_9allocatorIiEEE4cendB7v160006Ev, symObjAddr: 0x3B08, symBinAddr: 0x100005ACC, symSize: 0x2C }
  - { offsetInCU: 0xF2C4, offset: 0xF2C4, size: 0x8, addend: 0x0, symName: __ZNSt3__16__treeIiNS_4lessIiEENS_9allocatorIiEEE15__insert_uniqueB7v160006ENS_21__tree_const_iteratorIiPNS_11__tree_nodeIiPvEElEERKi, symObjAddr: 0x3B68, symBinAddr: 0x100005B2C, symSize: 0x64 }
  - { offsetInCU: 0xF308, offset: 0xF308, size: 0x8, addend: 0x0, symName: __ZNKSt3__111__wrap_iterIPKiEdeB7v160006Ev, symObjAddr: 0x3BCC, symBinAddr: 0x100005B90, symSize: 0x18 }
  - { offsetInCU: 0xF32E, offset: 0xF32E, size: 0x8, addend: 0x0, symName: __ZNSt3__111__wrap_iterIPKiEppB7v160006Ev, symObjAddr: 0x3BE4, symBinAddr: 0x100005BA8, symSize: 0x20 }
  - { offsetInCU: 0xF354, offset: 0xF354, size: 0x8, addend: 0x0, symName: __ZNKSt3__13setIiNS_4lessIiEENS_9allocatorIiEEE3endB7v160006Ev, symObjAddr: 0x3C04, symBinAddr: 0x100005BC8, symSize: 0x2C }
  - { offsetInCU: 0xF37A, offset: 0xF37A, size: 0x8, addend: 0x0, symName: __ZNKSt3__16__treeIiNS_4lessIiEENS_9allocatorIiEEE3endB7v160006Ev, symObjAddr: 0x3C30, symBinAddr: 0x100005BF4, symSize: 0x34 }
  - { offsetInCU: 0xF3A0, offset: 0xF3A0, size: 0x8, addend: 0x0, symName: __ZNKSt3__16__treeIiNS_4lessIiEENS_9allocatorIiEEE10__end_nodeB7v160006Ev, symObjAddr: 0x3C64, symBinAddr: 0x100005C28, symSize: 0x2C }
  - { offsetInCU: 0xF3C6, offset: 0xF3C6, size: 0x8, addend: 0x0, symName: __ZNSt3__121__tree_const_iteratorIiPNS_11__tree_nodeIiPvEElEC1B7v160006EPNS_15__tree_end_nodeIPNS_16__tree_node_baseIS2_EEEE, symObjAddr: 0x3C90, symBinAddr: 0x100005C54, symSize: 0x34 }
  - { offsetInCU: 0xF3FF, offset: 0xF3FF, size: 0x8, addend: 0x0, symName: __ZNKSt3__117__compressed_pairINS_15__tree_end_nodeIPNS_16__tree_node_baseIPvEEEENS_9allocatorINS_11__tree_nodeIiS3_EEEEE5firstB7v160006Ev, symObjAddr: 0x3CC4, symBinAddr: 0x100005C88, symSize: 0x24 }
  - { offsetInCU: 0xF425, offset: 0xF425, size: 0x8, addend: 0x0, symName: __ZNKSt3__122__compressed_pair_elemINS_15__tree_end_nodeIPNS_16__tree_node_baseIPvEEEELi0ELb0EE5__getB7v160006Ev, symObjAddr: 0x3CE8, symBinAddr: 0x100005CAC, symSize: 0x14 }
  - { offsetInCU: 0xF44B, offset: 0xF44B, size: 0x8, addend: 0x0, symName: __ZNSt3__121__tree_const_iteratorIiPNS_11__tree_nodeIiPvEElEC2B7v160006EPNS_15__tree_end_nodeIPNS_16__tree_node_baseIS2_EEEE, symObjAddr: 0x3CFC, symBinAddr: 0x100005CC0, symSize: 0x20 }
  - { offsetInCU: 0xF484, offset: 0xF484, size: 0x8, addend: 0x0, symName: __ZNKSt3__111__wrap_iterIPKiE4baseB7v160006Ev, symObjAddr: 0x3D64, symBinAddr: 0x100005D28, symSize: 0x18 }
  - { offsetInCU: 0xF4AA, offset: 0xF4AA, size: 0x8, addend: 0x0, symName: __ZNSt3__16__treeIiNS_4lessIiEENS_9allocatorIiEEE30__emplace_hint_unique_key_argsIiJRKiEEENS_4pairINS_15__tree_iteratorIiPNS_11__tree_nodeIiPvEElEEbEENS_21__tree_const_iteratorIiSE_lEERKT_DpOT0_, symObjAddr: 0x3D7C, symBinAddr: 0x100005D40, symSize: 0x104 }
  - { offsetInCU: 0xF576, offset: 0xF576, size: 0x8, addend: 0x0, symName: __ZNSt3__122__tree_key_value_typesIiE9__get_keyB7v160006ERKi, symObjAddr: 0x3E80, symBinAddr: 0x100005E44, symSize: 0x14 }
  - { offsetInCU: 0xF59A, offset: 0xF59A, size: 0x8, addend: 0x0, symName: __ZNSt3__16__treeIiNS_4lessIiEENS_9allocatorIiEEE12__find_equalIiEERPNS_16__tree_node_baseIPvEENS_21__tree_const_iteratorIiPNS_11__tree_nodeIiS8_EElEERPNS_15__tree_end_nodeISA_EESB_RKT_, symObjAddr: 0x3E94, symBinAddr: 0x100005E58, symSize: 0x304 }
  - { offsetInCU: 0xF643, offset: 0xF643, size: 0x8, addend: 0x0, symName: __ZNSt3__16__treeIiNS_4lessIiEENS_9allocatorIiEEE16__construct_nodeIJRKiEEENS_10unique_ptrINS_11__tree_nodeIiPvEENS_22__tree_node_destructorINS3_ISC_EEEEEEDpOT_, symObjAddr: 0x4198, symBinAddr: 0x10000615C, symSize: 0x110 }
  - { offsetInCU: 0xF6A4, offset: 0xF6A4, size: 0x8, addend: 0x0, symName: __ZNSt3__16__treeIiNS_4lessIiEENS_9allocatorIiEEE16__insert_node_atEPNS_15__tree_end_nodeIPNS_16__tree_node_baseIPvEEEERSA_SA_, symObjAddr: 0x42A8, symBinAddr: 0x10000626C, symSize: 0xCC }
  - { offsetInCU: 0xF6F9, offset: 0xF6F9, size: 0x8, addend: 0x0, symName: __ZNKSt3__110unique_ptrINS_11__tree_nodeIiPvEENS_22__tree_node_destructorINS_9allocatorIS3_EEEEE3getB7v160006Ev, symObjAddr: 0x4374, symBinAddr: 0x100006338, symSize: 0x28 }
  - { offsetInCU: 0xF71F, offset: 0xF71F, size: 0x8, addend: 0x0, symName: __ZNSt3__110unique_ptrINS_11__tree_nodeIiPvEENS_22__tree_node_destructorINS_9allocatorIS3_EEEEE7releaseB7v160006Ev, symObjAddr: 0x439C, symBinAddr: 0x100006360, symSize: 0x44 }
  - { offsetInCU: 0xF754, offset: 0xF754, size: 0x8, addend: 0x0, symName: __ZNSt3__110unique_ptrINS_11__tree_nodeIiPvEENS_22__tree_node_destructorINS_9allocatorIS3_EEEEED1B7v160006Ev, symObjAddr: 0x43E0, symBinAddr: 0x1000063A4, symSize: 0x2C }
  - { offsetInCU: 0xF77E, offset: 0xF77E, size: 0x8, addend: 0x0, symName: __ZNSt3__115__tree_iteratorIiPNS_11__tree_nodeIiPvEElEC1B7v160006ES4_, symObjAddr: 0x440C, symBinAddr: 0x1000063D0, symSize: 0x34 }
  - { offsetInCU: 0xF7C1, offset: 0xF7C1, size: 0x8, addend: 0x0, symName: __ZNSt3__14pairINS_15__tree_iteratorIiPNS_11__tree_nodeIiPvEElEEbEC1B7v160006IS6_RbLS3_0EEEOT_OT0_, symObjAddr: 0x4440, symBinAddr: 0x100006404, symSize: 0x3C }
  - { offsetInCU: 0xF81F, offset: 0xF81F, size: 0x8, addend: 0x0, symName: __ZNSt3__16__treeIiNS_4lessIiEENS_9allocatorIiEEE3endB7v160006Ev, symObjAddr: 0x44AC, symBinAddr: 0x100006470, symSize: 0x34 }
  - { offsetInCU: 0xF845, offset: 0xF845, size: 0x8, addend: 0x0, symName: __ZNSt3__121__tree_const_iteratorIiPNS_11__tree_nodeIiPvEElEC1B7v160006ENS_15__tree_iteratorIiS4_lEE, symObjAddr: 0x44E0, symBinAddr: 0x1000064A4, symSize: 0x34 }
  - { offsetInCU: 0xF87E, offset: 0xF87E, size: 0x8, addend: 0x0, symName: __ZNSt3__16__treeIiNS_4lessIiEENS_9allocatorIiEEE10value_compB7v160006Ev, symObjAddr: 0x4514, symBinAddr: 0x1000064D8, symSize: 0x28 }
  - { offsetInCU: 0xF8A4, offset: 0xF8A4, size: 0x8, addend: 0x0, symName: __ZNKSt3__14lessIiEclB7v160006ERKiS3_, symObjAddr: 0x453C, symBinAddr: 0x100006500, symSize: 0x34 }
  - { offsetInCU: 0xF8E8, offset: 0xF8E8, size: 0x8, addend: 0x0, symName: __ZNSt3__16__treeIiNS_4lessIiEENS_9allocatorIiEEE5beginB7v160006Ev, symObjAddr: 0x4570, symBinAddr: 0x100006534, symSize: 0x34 }
  - { offsetInCU: 0xF90E, offset: 0xF90E, size: 0x8, addend: 0x0, symName: __ZNSt3__16__treeIiNS_4lessIiEENS_9allocatorIiEEE12__find_equalIiEERPNS_16__tree_node_baseIPvEERPNS_15__tree_end_nodeISA_EERKT_, symObjAddr: 0x45A4, symBinAddr: 0x100006568, symSize: 0x184 }
  - { offsetInCU: 0xF97B, offset: 0xF97B, size: 0x8, addend: 0x0, symName: __ZNKSt3__121__tree_const_iteratorIiPNS_11__tree_nodeIiPvEElE8__get_npB7v160006Ev, symObjAddr: 0x4778, symBinAddr: 0x10000673C, symSize: 0x18 }
  - { offsetInCU: 0xF9A1, offset: 0xF9A1, size: 0x8, addend: 0x0, symName: __ZNSt3__115__tree_iteratorIiPNS_11__tree_nodeIiPvEElEC1B7v160006EPNS_15__tree_end_nodeIPNS_16__tree_node_baseIS2_EEEE, symObjAddr: 0x4790, symBinAddr: 0x100006754, symSize: 0x34 }
  - { offsetInCU: 0xF9DA, offset: 0xF9DA, size: 0x8, addend: 0x0, symName: __ZNSt3__115__tree_iteratorIiPNS_11__tree_nodeIiPvEElEC2B7v160006EPNS_15__tree_end_nodeIPNS_16__tree_node_baseIS2_EEEE, symObjAddr: 0x47C4, symBinAddr: 0x100006788, symSize: 0x20 }
  - { offsetInCU: 0xFA13, offset: 0xFA13, size: 0x8, addend: 0x0, symName: __ZNSt3__121__tree_const_iteratorIiPNS_11__tree_nodeIiPvEElEC2B7v160006ENS_15__tree_iteratorIiS4_lEE, symObjAddr: 0x47E4, symBinAddr: 0x1000067A8, symSize: 0x20 }
  - { offsetInCU: 0xFA4C, offset: 0xFA4C, size: 0x8, addend: 0x0, symName: __ZNSt3__117__compressed_pairImNS_4lessIiEEE6secondB7v160006Ev, symObjAddr: 0x4804, symBinAddr: 0x1000067C8, symSize: 0x24 }
  - { offsetInCU: 0xFA72, offset: 0xFA72, size: 0x8, addend: 0x0, symName: __ZNSt3__122__compressed_pair_elemINS_4lessIiEELi1ELb1EE5__getB7v160006Ev, symObjAddr: 0x4828, symBinAddr: 0x1000067EC, symSize: 0x14 }
  - { offsetInCU: 0xFA98, offset: 0xFA98, size: 0x8, addend: 0x0, symName: __ZNKSt3__16__treeIiNS_4lessIiEENS_9allocatorIiEEE6__rootB7v160006Ev, symObjAddr: 0x483C, symBinAddr: 0x100006800, symSize: 0x28 }
  - { offsetInCU: 0xFABE, offset: 0xFABE, size: 0x8, addend: 0x0, symName: __ZNKSt3__16__treeIiNS_4lessIiEENS_9allocatorIiEEE10__root_ptrEv, symObjAddr: 0x4864, symBinAddr: 0x100006828, symSize: 0x24 }
  - { offsetInCU: 0xFAE4, offset: 0xFAE4, size: 0x8, addend: 0x0, symName: __ZNSt3__121__tree_const_iteratorIiPNS_11__tree_nodeIiPvEElEppB7v160006Ev, symObjAddr: 0x4990, symBinAddr: 0x100006954, symSize: 0x38 }
  - { offsetInCU: 0xFB0A, offset: 0xFB0A, size: 0x8, addend: 0x0, symName: __ZNSt3__16__treeIiNS_4lessIiEENS_9allocatorIiEEE12__node_allocB7v160006Ev, symObjAddr: 0x4A88, symBinAddr: 0x100006A4C, symSize: 0x28 }
  - { offsetInCU: 0xFB30, offset: 0xFB30, size: 0x8, addend: 0x0, symName: __ZNSt3__116allocator_traitsINS_9allocatorINS_11__tree_nodeIiPvEEEEE8allocateB7v160006ERS5_m, symObjAddr: 0x4AB0, symBinAddr: 0x100006A74, symSize: 0x2C }
  - { offsetInCU: 0xFB63, offset: 0xFB63, size: 0x8, addend: 0x0, symName: __ZNSt3__122__tree_node_destructorINS_9allocatorINS_11__tree_nodeIiPvEEEEEC1B7v160006ERS5_b, symObjAddr: 0x4ADC, symBinAddr: 0x100006AA0, symSize: 0x48 }
  - { offsetInCU: 0xFBB0, offset: 0xFBB0, size: 0x8, addend: 0x0, symName: __ZNSt3__110unique_ptrINS_11__tree_nodeIiPvEENS_22__tree_node_destructorINS_9allocatorIS3_EEEEEC1B7v160006ILb1EvEEPS3_NS_16__dependent_typeINS_27__unique_ptr_deleter_sfinaeIS7_EEXT_EE20__good_rval_ref_typeE, symObjAddr: 0x4B24, symBinAddr: 0x100006AE8, symSize: 0x3C }
  - { offsetInCU: 0xFC01, offset: 0xFC01, size: 0x8, addend: 0x0, symName: __ZNSt3__116allocator_traitsINS_9allocatorINS_11__tree_nodeIiPvEEEEE9constructB7v160006IiJRKiEvEEvRS5_PT_DpOT0_, symObjAddr: 0x4B60, symBinAddr: 0x100006B24, symSize: 0x34 }
  - { offsetInCU: 0xFC58, offset: 0xFC58, size: 0x8, addend: 0x0, symName: __ZNSt3__122__tree_key_value_typesIiE9__get_ptrB7v160006ERi, symObjAddr: 0x4B94, symBinAddr: 0x100006B58, symSize: 0x14 }
  - { offsetInCU: 0xFC7C, offset: 0xFC7C, size: 0x8, addend: 0x0, symName: __ZNKSt3__110unique_ptrINS_11__tree_nodeIiPvEENS_22__tree_node_destructorINS_9allocatorIS3_EEEEEptB7v160006Ev, symObjAddr: 0x4BA8, symBinAddr: 0x100006B6C, symSize: 0x28 }
  - { offsetInCU: 0xFCA2, offset: 0xFCA2, size: 0x8, addend: 0x0, symName: __ZNSt3__110unique_ptrINS_11__tree_nodeIiPvEENS_22__tree_node_destructorINS_9allocatorIS3_EEEEE11get_deleterB7v160006Ev, symObjAddr: 0x4BD0, symBinAddr: 0x100006B94, symSize: 0x24 }
  - { offsetInCU: 0xFCC8, offset: 0xFCC8, size: 0x8, addend: 0x0, symName: __ZNSt3__117__compressed_pairINS_15__tree_end_nodeIPNS_16__tree_node_baseIPvEEEENS_9allocatorINS_11__tree_nodeIiS3_EEEEE6secondB7v160006Ev, symObjAddr: 0x4BF4, symBinAddr: 0x100006BB8, symSize: 0x24 }
  - { offsetInCU: 0xFCEE, offset: 0xFCEE, size: 0x8, addend: 0x0, symName: __ZNSt3__122__compressed_pair_elemINS_9allocatorINS_11__tree_nodeIiPvEEEELi1ELb1EE5__getB7v160006Ev, symObjAddr: 0x4C18, symBinAddr: 0x100006BDC, symSize: 0x14 }
  - { offsetInCU: 0xFD14, offset: 0xFD14, size: 0x8, addend: 0x0, symName: __ZNSt3__19allocatorINS_11__tree_nodeIiPvEEE8allocateB7v160006Em, symObjAddr: 0x4C2C, symBinAddr: 0x100006BF0, symSize: 0x58 }
  - { offsetInCU: 0xFD52, offset: 0xFD52, size: 0x8, addend: 0x0, symName: __ZNSt3__116allocator_traitsINS_9allocatorINS_11__tree_nodeIiPvEEEEE8max_sizeB7v160006IS5_vEEmRKS5_, symObjAddr: 0x4C84, symBinAddr: 0x100006C48, symSize: 0x24 }
  - { offsetInCU: 0xFD80, offset: 0xFD80, size: 0x8, addend: 0x0, symName: __ZNKSt3__19allocatorINS_11__tree_nodeIiPvEEE8max_sizeB7v160006Ev, symObjAddr: 0x4CA8, symBinAddr: 0x100006C6C, symSize: 0x14 }
  - { offsetInCU: 0xFDA6, offset: 0xFDA6, size: 0x8, addend: 0x0, symName: __ZNSt3__122__tree_node_destructorINS_9allocatorINS_11__tree_nodeIiPvEEEEEC2B7v160006ERS5_b, symObjAddr: 0x4CBC, symBinAddr: 0x100006C80, symSize: 0x38 }
  - { offsetInCU: 0xFDEE, offset: 0xFDEE, size: 0x8, addend: 0x0, symName: __ZNSt3__110unique_ptrINS_11__tree_nodeIiPvEENS_22__tree_node_destructorINS_9allocatorIS3_EEEEEC2B7v160006ILb1EvEEPS3_NS_16__dependent_typeINS_27__unique_ptr_deleter_sfinaeIS7_EEXT_EE20__good_rval_ref_typeE, symObjAddr: 0x4CF4, symBinAddr: 0x100006CB8, symSize: 0x48 }
  - { offsetInCU: 0xFE3F, offset: 0xFE3F, size: 0x8, addend: 0x0, symName: __ZNSt3__117__compressed_pairIPNS_11__tree_nodeIiPvEENS_22__tree_node_destructorINS_9allocatorIS3_EEEEEC1B7v160006IRS4_S8_EEOT_OT0_, symObjAddr: 0x4D3C, symBinAddr: 0x100006D00, symSize: 0x3C }
  - { offsetInCU: 0xFE97, offset: 0xFE97, size: 0x8, addend: 0x0, symName: __ZNSt3__117__compressed_pairIPNS_11__tree_nodeIiPvEENS_22__tree_node_destructorINS_9allocatorIS3_EEEEEC2B7v160006IRS4_S8_EEOT_OT0_, symObjAddr: 0x4D78, symBinAddr: 0x100006D3C, symSize: 0x48 }
  - { offsetInCU: 0xFEEF, offset: 0xFEEF, size: 0x8, addend: 0x0, symName: __ZNSt3__122__compressed_pair_elemIPNS_11__tree_nodeIiPvEELi0ELb0EEC2B7v160006IRS4_vEEOT_, symObjAddr: 0x4DC0, symBinAddr: 0x100006D84, symSize: 0x24 }
  - { offsetInCU: 0xFF31, offset: 0xFF31, size: 0x8, addend: 0x0, symName: __ZNSt3__122__compressed_pair_elemINS_22__tree_node_destructorINS_9allocatorINS_11__tree_nodeIiPvEEEEEELi1ELb0EEC2B7v160006IS7_vEEOT_, symObjAddr: 0x4DE4, symBinAddr: 0x100006DA8, symSize: 0x24 }
  - { offsetInCU: 0xFF73, offset: 0xFF73, size: 0x8, addend: 0x0, symName: __ZNSt3__19allocatorINS_11__tree_nodeIiPvEEE9constructB7v160006IiJRKiEEEvPT_DpOT0_, symObjAddr: 0x4E08, symBinAddr: 0x100006DCC, symSize: 0x28 }
  - { offsetInCU: 0xFFC9, offset: 0xFFC9, size: 0x8, addend: 0x0, symName: __ZNKSt3__117__compressed_pairIPNS_11__tree_nodeIiPvEENS_22__tree_node_destructorINS_9allocatorIS3_EEEEE5firstB7v160006Ev, symObjAddr: 0x4E30, symBinAddr: 0x100006DF4, symSize: 0x24 }
  - { offsetInCU: 0xFFEF, offset: 0xFFEF, size: 0x8, addend: 0x0, symName: __ZNKSt3__122__compressed_pair_elemIPNS_11__tree_nodeIiPvEELi0ELb0EE5__getB7v160006Ev, symObjAddr: 0x4E54, symBinAddr: 0x100006E18, symSize: 0x14 }
  - { offsetInCU: 0x10015, offset: 0x10015, size: 0x8, addend: 0x0, symName: __ZNSt3__117__compressed_pairIPNS_11__tree_nodeIiPvEENS_22__tree_node_destructorINS_9allocatorIS3_EEEEE6secondB7v160006Ev, symObjAddr: 0x4E68, symBinAddr: 0x100006E2C, symSize: 0x28 }
  - { offsetInCU: 0x1003B, offset: 0x1003B, size: 0x8, addend: 0x0, symName: __ZNSt3__122__compressed_pair_elemINS_22__tree_node_destructorINS_9allocatorINS_11__tree_nodeIiPvEEEEEELi1ELb0EE5__getB7v160006Ev, symObjAddr: 0x4E90, symBinAddr: 0x100006E54, symSize: 0x14 }
  - { offsetInCU: 0x10061, offset: 0x10061, size: 0x8, addend: 0x0, symName: __ZNSt3__16__treeIiNS_4lessIiEENS_9allocatorIiEEE4sizeB7v160006Ev, symObjAddr: 0x5120, symBinAddr: 0x1000070E4, symSize: 0x28 }
  - { offsetInCU: 0x10087, offset: 0x10087, size: 0x8, addend: 0x0, symName: __ZNSt3__116__tree_node_baseIPvE12__set_parentB7v160006EPS2_, symObjAddr: 0x52EC, symBinAddr: 0x1000072B0, symSize: 0x20 }
  - { offsetInCU: 0x100BC, offset: 0x100BC, size: 0x8, addend: 0x0, symName: __ZNSt3__117__compressed_pairImNS_4lessIiEEE5firstB7v160006Ev, symObjAddr: 0x530C, symBinAddr: 0x1000072D0, symSize: 0x24 }
  - { offsetInCU: 0x100E2, offset: 0x100E2, size: 0x8, addend: 0x0, symName: __ZNSt3__122__compressed_pair_elemImLi0ELb0EE5__getB7v160006Ev, symObjAddr: 0x5330, symBinAddr: 0x1000072F4, symSize: 0x14 }
  - { offsetInCU: 0x10108, offset: 0x10108, size: 0x8, addend: 0x0, symName: __ZNSt3__117__compressed_pairIPNS_11__tree_nodeIiPvEENS_22__tree_node_destructorINS_9allocatorIS3_EEEEE5firstB7v160006Ev, symObjAddr: 0x5344, symBinAddr: 0x100007308, symSize: 0x24 }
  - { offsetInCU: 0x1012E, offset: 0x1012E, size: 0x8, addend: 0x0, symName: __ZNSt3__122__compressed_pair_elemIPNS_11__tree_nodeIiPvEELi0ELb0EE5__getB7v160006Ev, symObjAddr: 0x5368, symBinAddr: 0x10000732C, symSize: 0x14 }
  - { offsetInCU: 0x10154, offset: 0x10154, size: 0x8, addend: 0x0, symName: __ZNSt3__110unique_ptrINS_11__tree_nodeIiPvEENS_22__tree_node_destructorINS_9allocatorIS3_EEEEED2B7v160006Ev, symObjAddr: 0x537C, symBinAddr: 0x100007340, symSize: 0x30 }
  - { offsetInCU: 0x1017E, offset: 0x1017E, size: 0x8, addend: 0x0, symName: __ZNSt3__110unique_ptrINS_11__tree_nodeIiPvEENS_22__tree_node_destructorINS_9allocatorIS3_EEEEE5resetB7v160006EPS3_, symObjAddr: 0x53AC, symBinAddr: 0x100007370, symSize: 0x78 }
  - { offsetInCU: 0x101C2, offset: 0x101C2, size: 0x8, addend: 0x0, symName: __ZNSt3__122__tree_node_destructorINS_9allocatorINS_11__tree_nodeIiPvEEEEEclB7v160006EPS4_, symObjAddr: 0x5424, symBinAddr: 0x1000073E8, symSize: 0x90 }
  - { offsetInCU: 0x101F7, offset: 0x101F7, size: 0x8, addend: 0x0, symName: __ZNSt3__116allocator_traitsINS_9allocatorINS_11__tree_nodeIiPvEEEEE7destroyB7v160006IivvEEvRS5_PT_, symObjAddr: 0x54B4, symBinAddr: 0x100007478, symSize: 0x14 }
  - { offsetInCU: 0x10231, offset: 0x10231, size: 0x8, addend: 0x0, symName: __ZNSt3__116allocator_traitsINS_9allocatorINS_11__tree_nodeIiPvEEEEE10deallocateB7v160006ERS5_PS4_m, symObjAddr: 0x54C8, symBinAddr: 0x10000748C, symSize: 0x34 }
  - { offsetInCU: 0x10273, offset: 0x10273, size: 0x8, addend: 0x0, symName: __ZNSt3__19allocatorINS_11__tree_nodeIiPvEEE10deallocateB7v160006EPS3_m, symObjAddr: 0x54FC, symBinAddr: 0x1000074C0, symSize: 0x40 }
  - { offsetInCU: 0x102B5, offset: 0x102B5, size: 0x8, addend: 0x0, symName: __ZNSt3__115__tree_iteratorIiPNS_11__tree_nodeIiPvEElEC2B7v160006ES4_, symObjAddr: 0x553C, symBinAddr: 0x100007500, symSize: 0x20 }
  - { offsetInCU: 0x102EE, offset: 0x102EE, size: 0x8, addend: 0x0, symName: __ZNSt3__14pairINS_15__tree_iteratorIiPNS_11__tree_nodeIiPvEElEEbEC2B7v160006IS6_RbLS3_0EEEOT_OT0_, symObjAddr: 0x555C, symBinAddr: 0x100007520, symSize: 0x38 }
  - { offsetInCU: 0x1034C, offset: 0x1034C, size: 0x8, addend: 0x0, symName: __ZNSt3__16__treeIiNS_4lessIiEENS_9allocatorIiEEED2Ev, symObjAddr: 0x5594, symBinAddr: 0x100007558, symSize: 0x38 }
  - { offsetInCU: 0x10378, offset: 0x10378, size: 0x8, addend: 0x0, symName: __ZNSt3__16__treeIiNS_4lessIiEENS_9allocatorIiEEE7destroyEPNS_11__tree_nodeIiPvEE, symObjAddr: 0x55CC, symBinAddr: 0x100007590, symSize: 0x9C }
  - { offsetInCU: 0x103CC, offset: 0x103CC, size: 0x8, addend: 0x0, symName: __ZNSt3__13setIiNS_4lessIiEENS_9allocatorIiEEED2B7v160006Ev, symObjAddr: 0x5668, symBinAddr: 0x10000762C, symSize: 0x2C }
  - { offsetInCU: 0x103F6, offset: 0x103F6, size: 0x8, addend: 0x0, symName: __ZNSt3__13setIiNS_4lessIiEENS_9allocatorIiEEE3endB7v160006Ev, symObjAddr: 0x5694, symBinAddr: 0x100007658, symSize: 0x38 }
  - { offsetInCU: 0x1041C, offset: 0x1041C, size: 0x8, addend: 0x0, symName: __ZNSt3__116reverse_iteratorINS_21__tree_const_iteratorIiPNS_11__tree_nodeIiPvEElEEEC1B7v160006ES6_, symObjAddr: 0x56CC, symBinAddr: 0x100007690, symSize: 0x34 }
  - { offsetInCU: 0x10454, offset: 0x10454, size: 0x8, addend: 0x0, symName: __ZNSt3__116reverse_iteratorINS_21__tree_const_iteratorIiPNS_11__tree_nodeIiPvEElEEEC2B7v160006ES6_, symObjAddr: 0x5700, symBinAddr: 0x1000076C4, symSize: 0x28 }
...
